(dp0
S'enzyme_440'
p1
(dp2
S'amount'
p3
I0
sS'handled_reacions'
p4
(lp5
VR_PHEMEtiex
p6
asS'id'
p7
g1
ssVb2518
p8
(dp9
g3
I0
sg4
(lp10
VR_NDPK1
p11
aVR_NDPK2
p12
aVR_NDPK3
p13
aVR_NDPK4
p14
aVR_NDPK5
p15
aVR_NDPK6
p16
aVR_NDPK7
p17
aVR_NDPK8
p18
asg7
g8
ssVb3824
p19
(dp20
g3
I0
sg4
(lp21
VR_HOMt2pp
p22
asg7
g19
ssVb3825
p23
(dp24
g3
I0
sg4
(lp25
VR_LPLIPAL2A120
p26
aVR_LPLIPAL2A140
p27
aVR_LPLIPAL2A141
p28
aVR_LPLIPAL2A160
p29
aVR_LPLIPAL2A161
p30
aVR_LPLIPAL2A180
p31
aVR_LPLIPAL2A181
p32
aVR_LPLIPAL2ATE120
p33
aVR_LPLIPAL2ATE140
p34
aVR_LPLIPAL2ATE141
p35
aVR_LPLIPAL2ATE160
p36
aVR_LPLIPAL2ATE161
p37
aVR_LPLIPAL2ATE180
p38
aVR_LPLIPAL2ATE181
p39
aVR_LPLIPAL2ATG120
p40
aVR_LPLIPAL2ATG140
p41
aVR_LPLIPAL2ATG141
p42
aVR_LPLIPAL2ATG160
p43
aVR_LPLIPAL2ATG161
p44
aVR_LPLIPAL2ATG180
p45
aVR_LPLIPAL2ATG181
p46
aVR_LPLIPAL2E120
p47
aVR_LPLIPAL2E140
p48
aVR_LPLIPAL2E141
p49
aVR_LPLIPAL2E160
p50
aVR_LPLIPAL2E161
p51
aVR_LPLIPAL2E180
p52
aVR_LPLIPAL2E181
p53
aVR_LPLIPAL2G120
p54
aVR_LPLIPAL2G140
p55
aVR_LPLIPAL2G141
p56
aVR_LPLIPAL2G160
p57
aVR_LPLIPAL2G161
p58
aVR_LPLIPAL2G180
p59
aVR_LPLIPAL2G181
p60
asg7
g23
ssVb3350
p61
(dp62
g3
I0
sg4
(lp63
VR_Kt3pp
p64
asg7
g61
ssVb2923
p65
(dp66
g3
I0
sg4
(lp67
VR_ARGt3pp
p68
aVR_LYSt3pp
p69
asg7
g65
ssVb3829
p70
(dp71
g3
I0
sg4
(lp72
VR_METS
p73
asg7
g70
ssVb2920
p74
(dp75
g3
I0
sg4
(lp76
VR_PPCSCT
p77
asg7
g74
ssVb3359
p78
(dp79
g3
I0
sg4
(lp80
VR_ACOTA
p81
aVR_SDPTA
p82
asg7
g78
ssVb1394-b1397
p83
(dp84
g3
I0
sg4
(lp85
VR_OXDHCOAT
p86
asg7
g83
ssVb2926
p87
(dp88
g3
I0
sg4
(lp89
VR_PGK
p90
asg7
g87
ssVb2927
p91
(dp92
g3
I0
sg4
(lp93
VR_E4PD
p94
asg7
g91
ssS'enzyme_281'
p95
(dp96
g3
I0
sg4
(lp97
VR_EX_sel_LPAREN_e_RPAREN_
p98
asg7
g95
ssS'enzyme_280'
p99
(dp100
g3
I0
sg4
(lp101
VR_EX_sbt_DASH_D_LPAREN_e_RPAREN_
p102
asg7
g99
ssS'enzyme_283'
p103
(dp104
g3
I0
sg4
(lp105
VR_EX_ser_DASH_L_LPAREN_e_RPAREN_
p106
asg7
g103
ssS'enzyme_282'
p107
(dp108
g3
I0
sg4
(lp109
VR_EX_ser_DASH_D_LPAREN_e_RPAREN_
p110
asg7
g107
ssS'enzyme_285'
p111
(dp112
g3
I0
sg4
(lp113
VR_EX_slnt_LPAREN_e_RPAREN_
p114
asg7
g111
ssS'enzyme_284'
p115
(dp116
g3
I0
sg4
(lp117
VR_EX_skm_LPAREN_e_RPAREN_
p118
asg7
g115
ssS'enzyme_287'
p119
(dp120
g3
I0
sg4
(lp121
VR_EX_so3_LPAREN_e_RPAREN_
p122
asg7
g119
ssS'enzyme_286'
p123
(dp124
g3
I0
sg4
(lp125
VR_EX_so2_LPAREN_e_RPAREN_
p126
asg7
g123
ssS'enzyme_289'
p127
(dp128
g3
I0
sg4
(lp129
VR_EX_spmd_LPAREN_e_RPAREN_
p130
asg7
g127
ssS'enzyme_288'
p131
(dp132
g3
I0
sg4
(lp133
VR_EX_so4_LPAREN_e_RPAREN_
p134
asg7
g131
ssVb2697
p135
(dp136
g3
I0
sg4
(lp137
VR_ALATRS
p138
asg7
g135
ssVb3544-b3543-b3542-b3541-b3540
p139
(dp140
g3
I0
sg4
(lp141
VR_ALAALAabcpp
p142
aVR_CGLYabcpp
p143
aVR_PROGLYabcpp
p144
asg7
g139
ssS'enzyme_111'
p145
(dp146
g3
I0
sg4
(lp147
VR_EX_dopa_LPAREN_e_RPAREN_
p148
asg7
g145
ssS'enzyme_110'
p149
(dp150
g3
I0
sg4
(lp151
VR_EX_dmso_LPAREN_e_RPAREN_
p152
asg7
g149
ssS'enzyme_113'
p153
(dp154
g3
I0
sg4
(lp155
VR_EX_dtmp_LPAREN_e_RPAREN_
p156
asg7
g153
ssS'enzyme_112'
p157
(dp158
g3
I0
sg4
(lp159
VR_EX_doxrbcn_LPAREN_e_RPAREN_
p160
asg7
g157
ssS'enzyme_115'
p161
(dp162
g3
I0
sg4
(lp163
VR_EX_duri_LPAREN_e_RPAREN_
p164
asg7
g161
ssS'enzyme_114'
p165
(dp166
g3
I0
sg4
(lp167
VR_EX_dump_LPAREN_e_RPAREN_
p168
asg7
g165
ssS'enzyme_117'
p169
(dp170
g3
I0
sg4
(lp171
VR_EX_enlipa_LPAREN_e_RPAREN_
p172
asg7
g169
ssS'enzyme_116'
p173
(dp174
g3
I0
sg4
(lp175
VR_EX_eca4colipa_LPAREN_e_RPAREN_
p176
asg7
g173
ssS'enzyme_119'
p177
(dp178
g3
I0
sg4
(lp179
VR_EX_etha_LPAREN_e_RPAREN_
p180
asg7
g177
ssS'enzyme_118'
p181
(dp182
g3
I0
sg4
(lp183
VR_EX_enter_LPAREN_e_RPAREN_
p184
asg7
g181
ssS'enzyme_449'
p185
(dp186
g3
I0
sg4
(lp187
VR_SELGTHR
p188
asg7
g185
ssS'enzyme_448'
p189
(dp190
g3
I0
sg4
(lp191
VR_R1PK
p192
asg7
g189
ssS'enzyme_446'
p193
(dp194
g3
I0
sg4
(lp195
VR_PYRt2rpp
p196
asg7
g193
ssVb2601
p197
(dp198
g3
I0
sg4
(lp199
VR_DDPA
p200
asg7
g197
ssVb2600
p201
(dp202
g3
I0
sg4
(lp203
VR_CHORM
p204
aVR_PPND
p205
asg7
g201
ssVb2174
p206
(dp207
g3
I0
sg4
(lp208
VR_COLIPAKpp
p209
asg7
g206
ssVb2170
p210
(dp211
g3
I0
sg4
(lp212
VR_LCTSt3ipp
p213
asg7
g210
ssVb3918
p214
(dp215
g3
I0
sg4
(lp216
VR_CDAPPA120
p217
aVR_CDAPPA140
p218
aVR_CDAPPA141
p219
aVR_CDAPPA160
p220
aVR_CDAPPA161
p221
aVR_CDAPPA180
p222
aVR_CDAPPA181
p223
asg7
g214
ssVb3919
p224
(dp225
g3
I0
sg4
(lp226
VR_TPI
p227
asg7
g224
ssVb1897
p228
(dp229
g3
I0
sg4
(lp230
VR_TRE6PP
p231
asg7
g228
ssVb3915
p232
(dp233
g3
I0
sg4
(lp234
VR_CD2t3pp
p235
aVR_COBALT2t3pp
p236
aVR_FE2t3pp
p237
aVR_HG2t3pp
p238
aVR_MN2t3pp
p239
aVR_NI2t3pp
p240
aVR_ZN2t3pp
p241
asg7
g232
ssVb3916
p242
(dp243
g3
I0
sg4
(lp244
VR_PFK
p245
aVR_PFK_2
p246
aVR_PFK_3
p247
asg7
g242
ssVb2514
p248
(dp249
g3
I0
sg4
(lp250
VR_HISTRS
p251
asg7
g248
ssVb3187
p252
(dp253
g3
I0
sg4
(lp254
VR_OCTDPS
p255
asg7
g252
ssVb1096
p256
(dp257
g3
I0
sg4
(lp258
VR_ADCL
p259
asg7
g256
ssVb1095
p260
(dp261
g3
I0
sg4
(lp262
VR_3OAS100
p263
aVR_3OAS120
p264
aVR_3OAS140
p265
aVR_3OAS160
p266
aVR_3OAS180
p267
aVR_3OAS181
p268
aVR_3OAS60
p269
aVR_3OAS80
p270
aVR_KAS14
p271
asg7
g260
ssVb1093
p272
(dp273
g3
I0
sg4
(lp274
VR_3OAR100
p275
aVR_3OAR120
p276
aVR_3OAR121
p277
aVR_3OAR140
p278
aVR_3OAR141
p279
aVR_3OAR160
p280
aVR_3OAR161
p281
aVR_3OAR180
p282
aVR_3OAR181
p283
aVR_3OAR40
p284
aVR_3OAR60
p285
aVR_3OAR80
p286
aVR_OGMEACPR
p287
aVR_OPMEACPR
p288
asg7
g272
ssVb1091
p289
(dp290
g3
I0
sg4
(lp291
VR_KAS15
p292
aVR_OGMEACPS
p293
asg7
g289
ssVb1098
p294
(dp295
g3
I0
sg4
(lp296
VR_DTMPK
p297
asg7
g294
ssVb1440-b1441-b1442-b1443
p298
(dp299
g3
I0
sg4
(lp300
VR_PTRCabcpp
p301
aVR_SPMDabcpp
p302
asg7
g298
ssVb1094-b1090
p303
(dp304
g3
I0
sg4
(lp305
VR_ACPPAT120
p306
aVR_ACPPAT140
p307
aVR_ACPPAT141
p308
aVR_ACPPAT160
p309
aVR_ACPPAT161
p310
aVR_ACPPAT180
p311
aVR_ACPPAT181
p312
asg7
g303
ssVb1094-b1091
p313
(dp314
g3
I0
sg4
(lp315
VR_ACOATA
p316
asg7
g313
ssVb1094-b1092
p317
(dp318
g3
I0
sg4
(lp319
VR_MCOATA
p320
asg7
g317
ssVb2779
p321
(dp322
g3
I0
sg4
(lp323
VR_ENO
p324
asg7
g321
ssVb1270
p325
(dp326
g3
I0
sg4
(lp327
VR_CBIAT
p328
aVR_CBLAT
p329
asg7
g325
ssVb1277
p330
(dp331
g3
I0
sg4
(lp332
VR_GTPCII2
p333
asg7
g330
ssVb1276
p334
(dp335
g3
I0
sg4
(lp336
VR_ACONTa
p337
aVR_ACONTb
p338
asg7
g334
ssVb1278
p339
(dp340
g3
I0
sg4
(lp341
VR_PAPA120
p342
aVR_PAPA120pp
p343
aVR_PAPA140
p344
aVR_PAPA140pp
p345
aVR_PAPA141
p346
aVR_PAPA141pp
p347
aVR_PAPA160
p348
aVR_PAPA160pp
p349
aVR_PAPA161
p350
aVR_PAPA161pp
p351
aVR_PAPA180
p352
aVR_PAPA180pp
p353
aVR_PAPA181
p354
aVR_PAPA181pp
p355
aVR_PGPP120
p356
aVR_PGPP120pp
p357
aVR_PGPP140
p358
aVR_PGPP140pp
p359
aVR_PGPP141
p360
aVR_PGPP141pp
p361
aVR_PGPP160
p362
aVR_PGPP160pp
p363
aVR_PGPP161
p364
aVR_PGPP161pp
p365
aVR_PGPP180
p366
aVR_PGPP180pp
p367
aVR_PGPP181
p368
aVR_PGPP181pp
p369
aVR_UDCPDP
p370
aVR_UDCPDPpp
p371
asg7
g339
ssVb4358
p372
(dp373
g3
I0
sg4
(lp374
VR_GALCTLO
p375
asg7
g372
ssVb4356
p376
(dp377
g3
I0
sg4
(lp378
VR_GALCTNLt2pp
p379
asg7
g376
ssVb1651
p380
(dp381
g3
I0
sg4
(lp382
VR_LGTHL
p383
asg7
g380
ssVb0709
p384
(dp385
g3
I0
sg4
(lp386
VR_LALADGLUtpp
p387
aVR_LALALGLUtpp
p388
asg7
g384
ssVb1876
p389
(dp390
g3
I0
sg4
(lp391
VR_ARGTRS
p392
asg7
g389
ssVb1654
p393
(dp394
g3
I0
sg4
(lp395
VR_GRXR
p396
asg7
g393
ssVb1656
p397
(dp398
g3
I0
sg4
(lp399
VR_SPODM
p400
asg7
g397
ssVb0875
p401
(dp402
g3
I0
sg4
(lp403
VR_H2Otpp
p404
asg7
g401
ssVb0870
p405
(dp406
g3
I0
sg4
(lp407
VR_ALATA_D2
p408
aVR_ALATA_L2
p409
aVR_THRA2i
p410
aVR_THRAi
p411
asg7
g405
ssVb0871
p412
(dp413
g3
I0
sg4
(lp414
VR_POX
p415
asg7
g412
ssVb0854-b0855-b0856-b0857
p416
(dp417
g3
I0
sg4
(lp418
g301
asg7
g416
ssVb4132
p419
(dp420
g3
I0
sg4
(lp421
VR_CADVtpp
p422
asg7
g419
ssVb4131
p423
(dp424
g3
I0
sg4
(lp425
VR_LYSDC
p426
asg7
g423
ssVb4130
p427
(dp428
g3
I0
sg4
(lp429
g387
ag388
asg7
g427
ssVb4139
p430
(dp431
g3
I0
sg4
(lp432
VR_ASPT
p433
asg7
g430
ssVb4138
p434
(dp435
g3
I0
sg4
(lp436
VR_ASPt2_3pp
p437
aVR_FUMt2_3pp
p438
aVR_MALt2_3pp
p439
aVR_SUCASPtpp
p440
aVR_SUCCt2_3pp
p441
aVR_SUCFUMtpp
p442
aVR_SUCMALtpp
p443
asg7
g434
ssVb1479
p444
(dp445
g3
I0
sg4
(lp446
VR_ME1
p447
asg7
g444
ssVb1478
p448
(dp449
g3
I0
sg4
(lp450
VR_ALCD2x
p451
asg7
g448
ssVb2895-b1378
p452
(dp453
g3
I0
sg4
(lp454
VR_POR5
p455
asg7
g452
ssVb1473
p456
(dp457
g3
I0
sg4
(lp458
VR_PHEt2rpp
p459
aVR_TRPt2rpp
p460
aVR_TYRt2rpp
p461
asg7
g456
ssS'enzyme_443'
p462
(dp463
g3
I0
sg4
(lp464
VR_PYDAMtpp
p465
asg7
g462
ssS'enzyme_442'
p466
(dp467
g3
I0
sg4
(lp468
VR_PPALtpp
p469
asg7
g466
ssS'enzyme_441'
p470
(dp471
g3
I0
sg4
(lp472
VR_PMDPHT
p473
asg7
g470
ssVb0674
p474
(dp475
g3
I0
sg4
(lp476
VR_ASNS1
p477
asg7
g474
ssVb0677
p478
(dp479
g3
I0
sg4
(lp480
VR_AGDC
p481
asg7
g478
ssVb3730
p482
(dp483
g3
I0
sg4
(lp484
VR_G1PACT
p485
aVR_UAGDP
p486
asg7
g482
ssVb0678
p487
(dp488
g3
I0
sg4
(lp489
VR_G6PDA
p490
asg7
g487
ssVb0306-b0307-b0308
p491
(dp492
g3
I0
sg4
(lp493
VR_L_DASH_LACD2
p494
aVR_L_DASH_LACD3
p495
asg7
g491
ssS'enzyme_445'
p496
(dp497
g3
I0
sg4
(lp498
VR_PYDXtpp
p499
asg7
g496
ssS'enzyme_444'
p500
(dp501
g3
I0
sg4
(lp502
VR_PYDXNtpp
p503
asg7
g500
ssVb4006
p504
(dp505
g3
I0
sg4
(lp506
VR_AICART
p507
aVR_IMPC
p508
asg7
g504
ssVb4005
p509
(dp510
g3
I0
sg4
(lp511
VR_PRAGSr
p512
asg7
g509
ssVb0451
p513
(dp514
g3
I0
sg4
(lp515
VR_NH4tpp
p516
asg7
g513
ssVb0904
p517
(dp518
g3
I0
sg4
(lp519
VR_FORt2pp
p520
aVR_FORtppi
p521
asg7
g517
ssVb0459
p522
(dp523
g3
I0
sg4
(lp524
VR_GLCATr
p525
aVR_MALTATr
p526
asg7
g522
ssVb0908
p527
(dp528
g3
I0
sg4
(lp529
VR_PSCVT
p530
asg7
g527
ssVs0001
p531
(dp532
g3
I0
sg4
(lp533
VR_ACALDtpp
p534
aVR_ACONIs
p535
aVR_AOBUTDs
p536
aVR_ARBTNexs
p537
aVR_ATPHs
p538
aVR_CBMD
p539
aVR_CO2tpp
p540
aVR_CPGNexs
p541
aVR_DATPHs
p542
aVR_DHPTDCs2
p543
aVR_DMSOtpp
p544
aVR_ETOHtrpp
p545
aVR_FALDtpp
p546
aVR_FALGTHLs
p547
aVR_FE3HOXexs
p548
aVR_FECRMexs
p549
aVR_FEENTERexs
p550
aVR_FEOXAMexs
p551
aVR_FESD1s
p552
aVR_FESD2s
p553
aVR_G5SADs
p554
aVR_GLYCtpp
p555
aVR_GTPHs
p556
aVR_H2Otex
p557
ag404
aVR_H2St1pp
p558
aVR_H2tpp
p559
aVR_MEOHtrpp
p560
aVR_METOX1s
p561
aVR_METOX2s
p562
aVR_MTHTHFSs
p563
aVR_N2Otpp
p564
ag516
aVR_NOVBCNtex
p565
aVR_NOtpp
p566
aVR_O2tpp
p567
aVR_OMCDC
p568
aVR_RFAMPtex
p569
aVR_SO2tpp
p570
asg7
g531
ssVb4079-b2719-b2720-b2721-b2722-b2723-b2724
p571
(dp572
g3
I0
sg4
(lp573
VR_FHL
p574
asg7
g571
ssVb3035
p575
(dp576
g3
I0
sg4
(lp577
VR_FEENTERtex
p578
asg7
g575
ssVb3034
p579
(dp580
g3
I0
sg4
(lp581
VR_ADPRDP
p582
asg7
g579
ssVb1683-b1682-b1681-b1679-b1680
p583
(dp584
g3
I0
sg4
(lp585
VR_S2FE2SR
p586
asg7
g583
ssVb3551-b3781
p587
(dp588
g3
I0
sg4
(lp589
VR_METSOXR1
p590
asg7
g587
ssVb2341
p591
(dp592
g3
I0
sg4
(lp593
VR_ECOAH1
p594
aVR_ECOAH2
p595
aVR_ECOAH3
p596
aVR_ECOAH4
p597
aVR_ECOAH5
p598
aVR_ECOAH6
p599
aVR_ECOAH7
p600
aVR_ECOAH8
p601
aVR_HACD1
p602
aVR_HACD2
p603
aVR_HACD3
p604
aVR_HACD4
p605
aVR_HACD5
p606
aVR_HACD6
p607
aVR_HACD7
p608
aVR_HACD8
p609
asg7
g591
ssVb3583
p610
(dp611
g3
I0
sg4
(lp612
VR_RBP4E
p613
asg7
g610
ssVb3581
p614
(dp615
g3
I0
sg4
(lp616
VR_KG6PDC
p617
asg7
g614
ssVb3580
p618
(dp619
g3
I0
sg4
(lp620
VR_3KGK
p621
aVR_XYLK2
p622
asg7
g618
ssVb3588
p623
(dp624
g3
I0
sg4
(lp625
VR_ALDD2y
p626
aVR_ALDD3y
p627
asg7
g623
ssVb2221-b2222
p628
(dp629
g3
I0
sg4
(lp630
VR_ACACCT
p631
aVR_BUTCT
p632
aVR_HXCT
p633
asg7
g628
ssVb0353
p634
(dp635
g3
I0
sg4
(lp636
VR_HCINNMt2rpp
p637
aVR_HPPPNt2rpp
p638
asg7
g634
ssVb1896
p639
(dp640
g3
I0
sg4
(lp641
VR_TRE6PS
p642
asg7
g639
ssVb0684-b1378
p643
(dp644
g3
I0
sg4
(lp645
g455
asg7
g643
ssVb3367
p646
(dp647
g3
I0
sg4
(lp648
VR_NO2t2rpp
p649
asg7
g646
ssVb3368
p650
(dp651
g3
I0
sg4
(lp652
VR_SHCHD2
p653
aVR_SHCHF
p654
aVR_UPP3MT
p655
asg7
g650
ssVb2762-b3610
p656
(dp657
g3
I0
sg4
(lp658
VR_PAPSR2
p659
asg7
g656
ssVb3693
p660
(dp661
g3
I0
sg4
(lp662
VR_DDGALK
p663
asg7
g660
ssVb3691
p664
(dp665
g3
I0
sg4
(lp666
VR_GALCTNt2pp
p667
asg7
g664
ssVb0978-b0979
p668
(dp669
g3
I0
sg4
(lp670
VR_CYTBD2pp
p671
aVR_CYTBDpp
p672
asg7
g668
ssVb1474-b1475-b1476
p673
(dp674
g3
I0
sg4
(lp675
VR_FDH4pp
p676
aVR_FDH5pp
p677
asg7
g673
ssS'enzyme_436'
p678
(dp679
g3
I0
sg4
(lp680
VR_OPHHX3
p681
asg7
g678
ssS'enzyme_125'
p682
(dp683
g3
I0
sg4
(lp684
VR_EX_fe3_LPAREN_e_RPAREN_
p685
asg7
g682
ssS'enzyme_126'
p686
(dp687
g3
I0
sg4
(lp688
VR_EX_fe3dcit_LPAREN_e_RPAREN_
p689
asg7
g686
ssS'enzyme_127'
p690
(dp691
g3
I0
sg4
(lp692
VR_EX_fe3dhbzs_LPAREN_e_RPAREN_
p693
asg7
g690
ssS'enzyme_120'
p694
(dp695
g3
I0
sg4
(lp696
VR_EX_ethso3_LPAREN_e_RPAREN_
p697
asg7
g694
ssS'enzyme_121'
p698
(dp699
g3
I0
sg4
(lp700
VR_EX_etoh_LPAREN_e_RPAREN_
p701
asg7
g698
ssS'enzyme_122'
p702
(dp703
g3
I0
sg4
(lp704
VR_EX_f6p_LPAREN_e_RPAREN_
p705
asg7
g702
ssS'enzyme_123'
p706
(dp707
g3
I0
sg4
(lp708
VR_EX_fald_LPAREN_e_RPAREN_
p709
asg7
g706
ssVb2344
p710
(dp711
g3
I0
sg4
(lp712
VR_DDCAtexi
p713
aVR_HDCAtexi
p714
aVR_HDCEAtexi
p715
aVR_OCDCAtexi
p716
aVR_OCDCEAtexi
p717
aVR_TTDCAtexi
p718
aVR_TTDCEAtexi
p719
asg7
g710
ssVb2342
p720
(dp721
g3
I0
sg4
(lp722
VR_ACACT1r
p723
aVR_ACACT2r
p724
aVR_ACACT3r
p725
aVR_ACACT4r
p726
aVR_ACACT5r
p727
aVR_ACACT6r
p728
aVR_ACACT7r
p729
aVR_ACACT8r
p730
asg7
g720
ssS'enzyme_129'
p731
(dp732
g3
I0
sg4
(lp733
VR_EX_fe3hox_DASH_un_LPAREN_e_RPAREN_
p734
asg7
g731
ssS'enzyme_438'
p735
(dp736
g3
I0
sg4
(lp737
VR_PACALDt2rpp
p738
asg7
g735
ssS'enzyme_439'
p739
(dp740
g3
I0
sg4
(lp741
VR_PDX5PO2
p742
asg7
g739
ssVb2162
p743
(dp744
g3
I0
sg4
(lp745
VR_CYTDH
p746
aVR_URIH
p747
asg7
g743
ssVb0811-b0810-b0809
p748
(dp749
g3
I0
sg4
(lp750
VR_GLNabcpp
p751
asg7
g748
ssVb0888-b2582
p752
(dp753
g3
I0
sg4
(lp754
VR_TRDR
p755
asg7
g752
ssVb2168
p756
(dp757
g3
I0
sg4
(lp758
VR_FRUK
p759
asg7
g756
ssS'enzyme_11'
p760
(dp761
g3
I0
sg4
(lp762
VR_EX_23ccmp_LPAREN_e_RPAREN_
p763
asg7
g760
ssS'enzyme_10'
p764
(dp765
g3
I0
sg4
(lp766
VR_EX_23camp_LPAREN_e_RPAREN_
p767
asg7
g764
ssS'enzyme_13'
p768
(dp769
g3
I0
sg4
(lp770
VR_EX_23cump_LPAREN_e_RPAREN_
p771
asg7
g768
ssS'enzyme_12'
p772
(dp773
g3
I0
sg4
(lp774
VR_EX_23cgmp_LPAREN_e_RPAREN_
p775
asg7
g772
ssS'enzyme_15'
p776
(dp777
g3
I0
sg4
(lp778
VR_EX_26dap_DASH_M_LPAREN_e_RPAREN_
p779
asg7
g776
ssS'enzyme_14'
p780
(dp781
g3
I0
sg4
(lp782
VR_EX_23dappa_LPAREN_e_RPAREN_
p783
asg7
g780
ssS'enzyme_17'
p784
(dp785
g3
I0
sg4
(lp786
VR_EX_34dhpac_LPAREN_e_RPAREN_
p787
asg7
g784
ssS'enzyme_16'
p788
(dp789
g3
I0
sg4
(lp790
VR_EX_2ddglcn_LPAREN_e_RPAREN_
p791
asg7
g788
ssS'enzyme_19'
p792
(dp793
g3
I0
sg4
(lp794
VR_EX_3cmp_LPAREN_e_RPAREN_
p795
asg7
g792
ssS'enzyme_18'
p796
(dp797
g3
I0
sg4
(lp798
VR_EX_3amp_LPAREN_e_RPAREN_
p799
asg7
g796
ssVb3962
p800
(dp801
g3
I0
sg4
(lp802
VR_NADTRHD
p803
asg7
g800
ssVb3967
p804
(dp805
g3
I0
sg4
(lp806
VR_GLUR
p807
asg7
g804
ssVb1263-b1264
p808
(dp809
g3
I0
sg4
(lp810
VR_ANS
p811
asg7
g808
ssVb2762-b2582
p812
(dp813
g3
I0
sg4
(lp814
VR_PAPSR
p815
asg7
g812
ssVb2507
p816
(dp817
g3
I0
sg4
(lp818
VR_GMPS2
p819
asg7
g816
ssVb2500
p820
(dp821
g3
I0
sg4
(lp822
VR_GARFT
p823
asg7
g820
ssVb2501
p824
(dp825
g3
I0
sg4
(lp826
VR_PPK2r
p827
aVR_PPKr
p828
asg7
g824
ssVb2502
p829
(dp830
g3
I0
sg4
(lp831
VR_PPA
p832
aVR_PPA2
p833
asg7
g829
ssVb2104
p834
(dp835
g3
I0
sg4
(lp836
VR_HETZK
p837
asg7
g834
ssVb2508
p838
(dp839
g3
I0
sg4
(lp840
VR_IMPD
p841
asg7
g838
ssVb2458
p842
(dp843
g3
I0
sg4
(lp844
VR_PTAr
p845
asg7
g842
ssVb1126-b1125-b1124-b1123
p846
(dp847
g3
I0
sg4
(lp848
g301
ag302
asg7
g846
ssVb3063
p849
(dp850
g3
I0
sg4
(lp851
VR_TARTRt7pp
p852
asg7
g849
ssVb1521
p853
(dp854
g3
I0
sg4
(lp855
VR_TAGURr
p856
asg7
g853
ssVb0829-b0830-b0831-b0832
p857
(dp858
g3
I0
sg4
(lp859
VR_GTHRDabcpp
p860
asg7
g857
ssVb2765
p861
(dp862
g3
I0
sg4
(lp863
VR_CPH4S
p864
asg7
g861
ssVb2893-b4136
p865
(dp866
g3
I0
sg4
(lp867
VR_TDSR1
p868
asg7
g865
ssVb1262
p869
(dp870
g3
I0
sg4
(lp871
VR_IGPS
p872
aVR_PRAIi
p873
asg7
g869
ssVb4219-b3781
p874
(dp875
g3
I0
sg4
(lp876
g590
asg7
g874
ssVb2276-b2277-b2278-b2279-b2280-b2281-b2282-b2283-b2284-b2285-b2286-b2287-b2288
p877
(dp878
g3
I0
sg4
(lp879
VR_NADH16pp
p880
aVR_NADH17pp
p881
aVR_NADH18pp
p882
asg7
g877
ssVb2415-b2416-b4195-b4194-b4193
p883
(dp884
g3
I0
sg4
(lp885
VR_ASCBptspp
p886
asg7
g883
ssVb1528
p887
(dp888
g3
I0
sg4
(lp889
VR_ARBt3ipp
p890
ag213
aVR_MELIBt3ipp
p891
asg7
g887
ssVb0972-b0973-b0974
p892
(dp893
g3
I0
sg4
(lp894
VR_HYD1pp
p895
aVR_HYD2pp
p896
aVR_HYD3pp
p897
asg7
g892
ssVb1866
p898
(dp899
g3
I0
sg4
(lp900
VR_ASPTRS
p901
asg7
g898
ssVb0849
p902
(dp903
g3
I0
sg4
(lp904
g396
asg7
g902
ssVb1865
p905
(dp906
g3
I0
sg4
(lp907
VR_DNTPPA
p908
aVR_NTPP5
p909
asg7
g905
ssVb1646
p910
(dp911
g3
I0
sg4
(lp912
VR_SPODMpp
p913
asg7
g910
ssVb0842
p914
(dp915
g3
I0
sg4
(lp916
g64
aVR_NAt3pp
p917
asg7
g914
ssVb0841
p918
(dp919
g3
I0
sg4
(lp920
g370
ag371
asg7
g918
ssVb4120
p921
(dp922
g3
I0
sg4
(lp923
VR_MELIBt2pp
p924
asg7
g921
ssVb4122
p925
(dp926
g3
I0
sg4
(lp927
VR_DTARTD
p928
aVR_FUM
p929
asg7
g925
ssVb4123
p930
(dp931
g3
I0
sg4
(lp932
g437
ag438
ag439
ag440
ag441
ag442
ag443
aVR_SUCTARTtpp
p933
aVR_TARTt2_3pp
p934
asg7
g930
ssVb0118
p935
(dp936
g3
I0
sg4
(lp937
g337
ag338
aVR_MICITDr
p938
asg7
g935
ssVb4129
p939
(dp940
g3
I0
sg4
(lp941
VR_AP4AS
p942
aVR_LYSTRS
p943
asg7
g939
ssVb0110
p944
(dp945
g3
I0
sg4
(lp946
VR_AGM3PA
p947
aVR_AGM4PA
p948
aVR_AM3PA
p949
aVR_AM4PA
p950
asg7
g944
ssVb0112
p951
(dp952
g3
I0
sg4
(lp953
VR_HISt2rpp
p954
ag459
ag460
ag461
asg7
g951
ssVb1469
p955
(dp956
g3
I0
sg4
(lp957
VR_NO3t7pp
p958
asg7
g955
ssVb1463
p959
(dp960
g3
I0
sg4
(lp961
VR_ACANTHAT
p962
asg7
g959
ssVb0591
p963
(dp964
g3
I0
sg4
(lp965
VR_FEENTERtpp
p966
asg7
g963
ssVb0593
p967
(dp968
g3
I0
sg4
(lp969
VR_ICHORSi
p970
asg7
g967
ssVb0595
p971
(dp972
g3
I0
sg4
(lp973
VR_ICHORT
p974
asg7
g971
ssVb0594
p975
(dp976
g3
I0
sg4
(lp977
VR_DHBS
p978
asg7
g975
ssVb0596
p979
(dp980
g3
I0
sg4
(lp981
VR_DHBD
p982
asg7
g979
ssS'enzyme_146'
p983
(dp984
g3
I0
sg4
(lp985
VR_EX_g3pi_LPAREN_e_RPAREN_
p986
asg7
g983
ssVb0604
p987
(dp988
g3
I0
sg4
(lp989
VR_DSBGGT
p990
asg7
g987
ssS'enzyme_147'
p991
(dp992
g3
I0
sg4
(lp993
VR_EX_g3ps_LPAREN_e_RPAREN_
p994
asg7
g991
ssVb0029
p995
(dp996
g3
I0
sg4
(lp997
VR_DMPPS
p998
aVR_IPDPS
p999
asg7
g995
ssVb4019
p1000
(dp1001
g3
I0
sg4
(lp1002
g73
asg7
g1000
ssVb4014
p1003
(dp1004
g3
I0
sg4
(lp1005
VR_MALS
p1006
asg7
g1003
ssVb4015
p1007
(dp1008
g3
I0
sg4
(lp1009
VR_ICL
p1010
asg7
g1007
ssVb0025
p1011
(dp1012
g3
I0
sg4
(lp1013
VR_FMNAT
p1014
aVR_RBFK
p1015
asg7
g1011
ssVb1519
p1016
(dp1017
g3
I0
sg4
(lp1018
VR_ACONMT
p1019
asg7
g1016
ssVb1069-b2519
p1020
(dp1021
g3
I0
sg4
(lp1022
VR_MPTG
p1023
aVR_MPTG2
p1024
asg7
g1020
ssS'enzyme_144'
p1025
(dp1026
g3
I0
sg4
(lp1027
VR_EX_g3pe_LPAREN_e_RPAREN_
p1028
asg7
g1025
ssVb0932
p1029
(dp1030
g3
I0
sg4
(lp1031
VR_AMPTASECG
p1032
aVR_AMPTASEPG
p1033
asg7
g1029
ssVb0931
p1034
(dp1035
g3
I0
sg4
(lp1036
VR_NAMNPP
p1037
asg7
g1034
ssVb0930
p1038
(dp1039
g3
I0
sg4
(lp1040
VR_ASNTRS
p1041
asg7
g1038
ssVb0937
p1042
(dp1043
g3
I0
sg4
(lp1044
VR_FMNRx
p1045
aVR_FMNRx2
p1046
asg7
g1042
ssVb0935
p1047
(dp1048
g3
I0
sg4
(lp1049
VR_FDMO
p1050
aVR_FDMO2
p1051
aVR_FDMO3
p1052
aVR_FDMO4
p1053
aVR_FDMO6
p1054
asg7
g1047
ssVb2947
p1055
(dp1056
g3
I0
sg4
(lp1057
VR_GTHS
p1058
asg7
g1055
ssVb1800
p1059
(dp1060
g3
I0
sg4
(lp1061
VR_MALDDH
p1062
asg7
g1059
ssVb1801
p1063
(dp1064
g3
I0
sg4
(lp1065
VR_CHLt2pp
p1066
aVR_GLYBt2pp
p1067
aVR_GLYt2pp
p1068
asg7
g1063
ssVb0334
p1069
(dp1070
g3
I0
sg4
(lp1071
VR_MCITD
p1072
asg7
g1069
ssVb0337
p1073
(dp1074
g3
I0
sg4
(lp1075
VR_CSND
p1076
asg7
g1073
ssVb0336
p1077
(dp1078
g3
I0
sg4
(lp1079
VR_CSNt2pp
p1080
asg7
g1077
ssVb0331
p1081
(dp1082
g3
I0
sg4
(lp1083
VR_MCITL2
p1084
asg7
g1081
ssVb0333
p1085
(dp1086
g3
I0
sg4
(lp1087
VR_MCITS
p1088
asg7
g1085
ssVb0339
p1089
(dp1090
g3
I0
sg4
(lp1091
VR_HCO3E
p1092
asg7
g1089
ssS'enzyme_143'
p1093
(dp1094
g3
I0
sg4
(lp1095
VR_EX_g3pc_LPAREN_e_RPAREN_
p1096
asg7
g1093
ssVb3028
p1097
(dp1098
g3
I0
sg4
(lp1099
VR_NADPHQR2
p1100
aVR_NADPHQR3
p1101
aVR_NADPHQR4
p1102
asg7
g1097
ssVb0863-b0860-b0861-b0864-b0862
p1103
(dp1104
g3
I0
sg4
(lp1105
VR_ARGabcpp
p1106
asg7
g1103
ssVb4136-b2582
p1107
(dp1108
g3
I0
sg4
(lp1109
VR_DSBDR
p1110
asg7
g1107
ssVb3591
p1111
(dp1112
g3
I0
sg4
(lp1113
VR_SELCYSS
p1114
asg7
g1111
ssVb2303
p1115
(dp1116
g3
I0
sg4
(lp1117
VR_DHPTPE
p1118
asg7
g1115
ssVb3115
p1119
(dp1120
g3
I0
sg4
(lp1121
VR_ACKr
p1122
aVR_PPAKr
p1123
asg7
g1119
ssVb3116
p1124
(dp1125
g3
I0
sg4
(lp1126
VR_SERt2rpp
p1127
aVR_THRt2rpp
p1128
asg7
g1124
ssVb3117
p1129
(dp1130
g3
I0
sg4
(lp1131
VR_THRD_L
p1132
asg7
g1129
ssVb0077-b0078
p1133
(dp1134
g3
I0
sg4
(lp1135
VR_ACHBS
p1136
aVR_ACLS
p1137
asg7
g1133
ssVb2528-b2529
p1138
(dp1139
g3
I0
sg4
(lp1140
VR_I2FE2ST
p1141
aVR_I4FE4ST
p1142
asg7
g1138
ssVb3374
p1143
(dp1144
g3
I0
sg4
(lp1145
VR_FRULYSK
p1146
asg7
g1143
ssVb3370
p1147
(dp1148
g3
I0
sg4
(lp1149
VR_FRULYSt2pp
p1150
aVR_PSCLYSt2pp
p1151
asg7
g1147
ssVb3371
p1152
(dp1153
g3
I0
sg4
(lp1154
VR_FRULYSDG
p1155
asg7
g1152
ssS'enzyme_139'
p1156
(dp1157
g3
I0
sg4
(lp1158
VR_EX_fuc_DASH_L_LPAREN_e_RPAREN_
p1159
asg7
g1156
ssS'enzyme_138'
p1160
(dp1161
g3
I0
sg4
(lp1162
VR_EX_fruur_LPAREN_e_RPAREN_
p1163
asg7
g1160
ssS'enzyme_133'
p1164
(dp1165
g3
I0
sg4
(lp1166
VR_EX_feoxam_LPAREN_e_RPAREN_
p1167
asg7
g1164
ssVb2440-b2441
p1168
(dp1169
g3
I0
sg4
(lp1170
VR_ETHAAL
p1171
asg7
g1168
ssS'enzyme_131'
p1172
(dp1173
g3
I0
sg4
(lp1174
VR_EX_fecrm_DASH_un_LPAREN_e_RPAREN_
p1175
asg7
g1172
ssS'enzyme_130'
p1176
(dp1177
g3
I0
sg4
(lp1178
VR_EX_fecrm_LPAREN_e_RPAREN_
p1179
asg7
g1176
ssS'enzyme_137'
p1180
(dp1181
g3
I0
sg4
(lp1182
VR_EX_frulys_LPAREN_e_RPAREN_
p1183
asg7
g1180
ssS'enzyme_136'
p1184
(dp1185
g3
I0
sg4
(lp1186
VR_EX_fru_LPAREN_e_RPAREN_
p1187
asg7
g1184
ssS'enzyme_135'
p1188
(dp1189
g3
I0
sg4
(lp1190
VR_EX_for_LPAREN_e_RPAREN_
p1191
asg7
g1188
ssS'enzyme_134'
p1192
(dp1193
g3
I0
sg4
(lp1194
VR_EX_feoxam_DASH_un_LPAREN_e_RPAREN_
p1195
asg7
g1192
ssS'enzyme_425'
p1196
(dp1197
g3
I0
sg4
(lp1198
VR_MLDEP2pp
p1199
asg7
g1196
ssS'enzyme_424'
p1200
(dp1201
g3
I0
sg4
(lp1202
VR_MLDEP1pp
p1203
asg7
g1200
ssS'enzyme_427'
p1204
(dp1205
g3
I0
sg4
(lp1206
VR_NACtpp
p1207
asg7
g1204
ssS'enzyme_426'
p1208
(dp1209
g3
I0
sg4
(lp1210
VR_MOX
p1211
asg7
g1208
ssS'enzyme_421'
p1212
(dp1213
g3
I0
sg4
(lp1214
VR_MLDCP2App
p1215
asg7
g1212
ssS'enzyme_420'
p1216
(dp1217
g3
I0
sg4
(lp1218
VR_MLDCP1Bpp
p1219
asg7
g1216
ssS'enzyme_423'
p1220
(dp1221
g3
I0
sg4
(lp1222
VR_MLDCP3App
p1223
asg7
g1220
ssS'enzyme_422'
p1224
(dp1225
g3
I0
sg4
(lp1226
VR_MLDCP2Bpp
p1227
asg7
g1224
ssVb2373
p1228
(dp1229
g3
I0
sg4
(lp1230
VR_OXCDC
p1231
asg7
g1228
ssVb2167-b2169-b2415-b2416
p1232
(dp1233
g3
I0
sg4
(lp1234
VR_FRUptspp
p1235
asg7
g1232
ssS'enzyme_429'
p1236
(dp1237
g3
I0
sg4
(lp1238
VR_NADPPPS
p1239
asg7
g1236
ssS'enzyme_428'
p1240
(dp1241
g3
I0
sg4
(lp1242
VR_NADN
p1243
asg7
g1240
ssVb2374
p1244
(dp1245
g3
I0
sg4
(lp1246
VR_FORCT
p1247
asg7
g1244
ssVb2153
p1248
(dp1249
g3
I0
sg4
(lp1250
VR_GTPCI
p1251
asg7
g1248
ssVb2156
p1252
(dp1253
g3
I0
sg4
(lp1254
VR_LYSt2pp
p1255
asg7
g1252
ssVb2154
p1256
(dp1257
g3
I0
sg4
(lp1258
VR_SFGTHi
p1259
asg7
g1256
ssVb2407
p1260
(dp1261
g3
I0
sg4
(lp1262
VR_PUNP3
p1263
aVR_PUNP4
p1264
aVR_PUNP5
p1265
aVR_PUNP6
p1266
aVR_PUNP7
p1267
asg7
g1260
ssVb2406
p1268
(dp1269
g3
I0
sg4
(lp1270
VR_ADNt2rpp
p1271
aVR_CYTDt2rpp
p1272
aVR_INSt2rpp
p1273
aVR_THMDt2rpp
p1274
aVR_URIt2rpp
p1275
aVR_XTSNt2rpp
p1276
asg7
g1268
ssVb2400
p1277
(dp1278
g3
I0
sg4
(lp1279
VR_GLUTRS
p1280
asg7
g1277
ssVb2975
p1281
(dp1282
g3
I0
sg4
(lp1283
VR_D_DASH_LACt2pp
p1284
aVR_GLYCLTt2rpp
p1285
aVR_L_DASH_LACt2rpp
p1286
asg7
g1281
ssVb2976
p1287
(dp1288
g3
I0
sg4
(lp1289
g1006
asg7
g1287
ssVb3974
p1290
(dp1291
g3
I0
sg4
(lp1292
VR_PNTK
p1293
asg7
g1290
ssVb2574
p1294
(dp1295
g3
I0
sg4
(lp1296
VR_ASPO3
p1297
aVR_ASPO4
p1298
aVR_ASPO5
p1299
aVR_ASPO6
p1300
asg7
g1294
ssVb0936-b0933-b0934
p1301
(dp1302
g3
I0
sg4
(lp1303
VR_BUTSO3abcpp
p1304
aVR_ETHSO3abcpp
p1305
aVR_ISETACabcpp
p1306
aVR_MSO3abcpp
p1307
aVR_SULFACabcpp
p1308
asg7
g1301
ssVb2578
p1309
(dp1310
g3
I0
sg4
(lp1311
VR_ACSERtpp
p1312
aVR_CYStpp
p1313
asg7
g1309
ssVb3431
p1314
(dp1315
g3
I0
sg4
(lp1316
VR_GLDBRAN2
p1317
asg7
g1314
ssVb1981
p1318
(dp1319
g3
I0
sg4
(lp1320
VR_SKMt2pp
p1321
asg7
g1318
ssS'enzyme_189'
p1322
(dp1323
g3
I0
sg4
(lp1324
VR_EX_hdca_LPAREN_e_RPAREN_
p1325
asg7
g1322
ssVb3437
p1326
(dp1327
g3
I0
sg4
(lp1328
VR_GNK
p1329
asg7
g1326
ssVb2889
p1330
(dp1331
g3
I0
sg4
(lp1332
VR_IPDDI
p1333
asg7
g1330
ssVb2883
p1334
(dp1335
g3
I0
sg4
(lp1336
VR_GUAD
p1337
asg7
g1334
ssVb2882
p1338
(dp1339
g3
I0
sg4
(lp1340
VR_XANt2pp
p1341
asg7
g1338
ssS'enzyme_55'
p1342
(dp1343
g3
I0
sg4
(lp1344
VR_EX_all_DASH_D_LPAREN_e_RPAREN_
p1345
asg7
g1342
ssVb2799
p1346
(dp1347
g3
I0
sg4
(lp1348
VR_LCARS
p1349
asg7
g1346
ssS'enzyme_54'
p1350
(dp1351
g3
I0
sg4
(lp1352
VR_EX_alaala_LPAREN_e_RPAREN_
p1353
asg7
g1350
ssVb2794
p1354
(dp1355
g3
I0
sg4
(lp1356
VR_CDGR
p1357
asg7
g1354
ssVb2797
p1358
(dp1359
g3
I0
sg4
(lp1360
VR_SERD_L
p1361
asg7
g1358
ssVb2796
p1362
(dp1363
g3
I0
sg4
(lp1364
g1127
asg7
g1362
ssS'enzyme_57'
p1365
(dp1366
g3
I0
sg4
(lp1367
VR_EX_amp_LPAREN_e_RPAREN_
p1368
asg7
g1365
ssS'enzyme_56'
p1369
(dp1370
g3
I0
sg4
(lp1371
VR_EX_alltn_LPAREN_e_RPAREN_
p1372
asg7
g1369
ssVb0684-b3924
p1373
(dp1374
g3
I0
sg4
(lp1375
VR_FLDR2
p1376
asg7
g1373
ssVb1210
p1377
(dp1378
g3
I0
sg4
(lp1379
VR_GLUTRR
p1380
asg7
g1377
ssVb1215
p1381
(dp1382
g3
I0
sg4
(lp1383
VR_KDOPS
p1384
asg7
g1381
ssS'enzyme_187'
p1385
(dp1386
g3
I0
sg4
(lp1387
VR_EX_hacolipa_LPAREN_e_RPAREN_
p1388
asg7
g1385
ssVb1189
p1389
(dp1390
g3
I0
sg4
(lp1391
VR_DAAD
p1392
asg7
g1389
ssVb2203-b2206-b2202
p1393
(dp1394
g3
I0
sg4
(lp1395
VR_NO3R2bpp
p1396
asg7
g1393
ssS'enzyme_53'
p1397
(dp1398
g3
I0
sg4
(lp1399
VR_EX_ala_DASH_L_LPAREN_e_RPAREN_
p1400
asg7
g1397
ssS'enzyme_52'
p1401
(dp1402
g3
I0
sg4
(lp1403
VR_EX_ala_DASH_D_LPAREN_e_RPAREN_
p1404
asg7
g1401
ssVb1186
p1405
(dp1406
g3
I0
sg4
(lp1407
VR_NAt3_1p5pp
p1408
asg7
g1405
ssVb1852
p1409
(dp1410
g3
I0
sg4
(lp1411
VR_G6PDH2r
p1412
asg7
g1409
ssVb1851
p1413
(dp1414
g3
I0
sg4
(lp1415
VR_EDD
p1416
asg7
g1413
ssVb1850
p1417
(dp1418
g3
I0
sg4
(lp1419
VR_EDA
p1420
aVR_OAADC
p1421
asg7
g1417
ssVb1855
p1422
(dp1423
g3
I0
sg4
(lp1424
VR_EDTXS2
p1425
aVR_EDTXS4
p1426
asg7
g1422
ssVb1854
p1427
(dp1428
g3
I0
sg4
(lp1429
VR_PYK
p1430
asg7
g1427
ssVb1676
p1431
(dp1432
g3
I0
sg4
(lp1433
g1430
asg7
g1431
ssVb1325
p1434
(dp1435
g3
I0
sg4
(lp1436
VR_ALAGLUE
p1437
asg7
g1434
ssVb1326
p1438
(dp1439
g3
I0
sg4
(lp1440
VR_LADGMDH
p1441
asg7
g1438
ssVb1453
p1442
(dp1443
g3
I0
sg4
(lp1444
VR_ASNt2rpp
p1445
asg7
g1442
ssVb0109
p1446
(dp1447
g3
I0
sg4
(lp1448
VR_NNDPR
p1449
asg7
g1446
ssVb0104
p1450
(dp1451
g3
I0
sg4
(lp1452
VR_GMPR
p1453
asg7
g1450
ssVb0103
p1454
(dp1455
g3
I0
sg4
(lp1456
VR_DPCOAK
p1457
asg7
g1454
ssVb4481
p1458
(dp1459
g3
I0
sg4
(lp1460
VR_AADDGT
p1461
asg7
g1458
ssVb3454-b3455-b3457-b3460-b3456
p1462
(dp1463
g3
I0
sg4
(lp1464
VR_ALAabcpp
p1465
aVR_ILEabcpp
p1466
aVR_LEUabcpp
p1467
aVR_THRabcpp
p1468
aVR_VALabcpp
p1469
asg7
g1462
ssVb1693
p1470
(dp1471
g3
I0
sg4
(lp1472
VR_DHQTi
p1473
asg7
g1470
ssVb1692
p1474
(dp1475
g3
I0
sg4
(lp1476
VR_QUINDH
p1477
aVR_SHK3Dr
p1478
asg7
g1474
ssVb4245
p1479
(dp1480
g3
I0
sg4
(lp1481
VR_ASPCT
p1482
asg7
g1479
ssVb4242
p1483
(dp1484
g3
I0
sg4
(lp1485
VR_MG2uabcpp
p1486
aVR_NI2uabcpp
p1487
asg7
g1483
ssVb0583
p1488
(dp1489
g3
I0
sg4
(lp1490
VR_ENTCS
p1491
asg7
g1488
ssVb0586
p1492
(dp1493
g3
I0
sg4
(lp1494
VR_SERASr
p1495
asg7
g1492
ssVb0585
p1496
(dp1497
g3
I0
sg4
(lp1498
VR_ENTERES
p1499
aVR_ENTERES2
p1500
asg7
g1496
ssVb0612
p1501
(dp1502
g3
I0
sg4
(lp1503
VR_CITt7pp
p1504
asg7
g1501
ssVb0613
p1505
(dp1506
g3
I0
sg4
(lp1507
VR_TPRDCOAS
p1508
asg7
g1505
ssVb2155-b1252-b3005-b3006
p1509
(dp1510
g3
I0
sg4
(lp1511
VR_FE3DHBZStonex
p1512
asg7
g1509
ssVb2751-b2752
p1513
(dp1514
g3
I0
sg4
(lp1515
VR_SADT2
p1516
asg7
g1513
ssVb0446
p1517
(dp1518
g3
I0
sg4
(lp1519
VR_2MAHMP
p1520
aVR_PYDXPP
p1521
asg7
g1517
ssVb4151-b4152-b4153-b4154
p1522
(dp1523
g3
I0
sg4
(lp1524
VR_FRD2
p1525
aVR_FRD3
p1526
asg7
g1522
ssVb4069
p1527
(dp1528
g3
I0
sg4
(lp1529
VR_ACCOAL
p1530
aVR_ACS
p1531
asg7
g1527
ssVb0038
p1532
(dp1533
g3
I0
sg4
(lp1534
VR_CRNBTCT
p1535
aVR_CRNCBCT
p1536
asg7
g1532
ssVb1525
p1537
(dp1538
g3
I0
sg4
(lp1539
VR_SSALx
p1540
aVR_SSALy
p1541
asg7
g1537
ssVb1524
p1542
(dp1543
g3
I0
sg4
(lp1544
VR_GLUN
p1545
asg7
g1542
ssVb0030
p1546
(dp1547
g3
I0
sg4
(lp1548
VR_ADNUC
p1549
ag746
aVR_INSH
p1550
ag747
aVR_XTSNH
p1551
asg7
g1546
ssVb0031
p1552
(dp1553
g3
I0
sg4
(lp1554
VR_DHDPRy
p1555
asg7
g1552
ssVb0036
p1556
(dp1557
g3
I0
sg4
(lp1558
VR_CRNCAR
p1559
aVR_CRNCDH
p1560
asg7
g1556
ssVb0037
p1561
(dp1562
g3
I0
sg4
(lp1563
VR_CRNCAL2
p1564
aVR_CRNDCAL2
p1565
aVR_CTBTCAL2
p1566
asg7
g1561
ssVb4067
p1567
(dp1568
g3
I0
sg4
(lp1569
VR_ACt4pp
p1570
aVR_GLYCLTt4pp
p1571
asg7
g1567
ssVb0928
p1572
(dp1573
g3
I0
sg4
(lp1574
VR_ASPTA
p1575
aVR_PHETA1
p1576
aVR_TYRTA
p1577
asg7
g1572
ssVb0929
p1578
(dp1579
g3
I0
sg4
(lp1580
VR_12PPDRtex
p1581
aVR_12PPDStex
p1582
aVR_23CAMPtex
p1583
aVR_23CCMPtex
p1584
aVR_23CGMPtex
p1585
aVR_23CUMPtex
p1586
aVR_23DAPPAtex
p1587
aVR_26DAHtex
p1588
aVR_34dhpactex
p1589
aVR_3AMPtex
p1590
aVR_3CMPtex
p1591
aVR_3GMPtex
p1592
aVR_3HPPtex
p1593
aVR_3PEPTtex
p1594
aVR_3UMPtex
p1595
aVR_4HOXPACDtex
p1596
aVR_4PEPTtex
p1597
aVR_5DGLCNtex
p1598
aVR_5MTRtex
p1599
aVR_ABUTtex
p1600
aVR_ACACtex
p1601
aVR_ACALDtex
p1602
aVR_ACGAL1Ptex
p1603
aVR_ACGALtex
p1604
aVR_ACGAM1Ptex
p1605
aVR_ACGAtex
p1606
aVR_ACMANAtex
p1607
aVR_ACMUMtex
p1608
aVR_ACNAMtex
p1609
aVR_ACSERtex
p1610
aVR_ACtex
p1611
aVR_ADEtex
p1612
aVR_AGMtex
p1613
aVR_AKGtex
p1614
aVR_ALAALAtex
p1615
aVR_ALAtex
p1616
aVR_ALLTNtex
p1617
aVR_ALLtex
p1618
aVR_AMPtex
p1619
aVR_ANHGMtex
p1620
aVR_ARBTtex
p1621
aVR_ARBtex
p1622
aVR_ARGtex
p1623
aVR_ASCBtex
p1624
aVR_ASNtex
p1625
aVR_ASO3tex
p1626
aVR_ASPtex
p1627
aVR_BALAtex
p1628
aVR_BTNtex
p1629
aVR_BUTSO3tex
p1630
aVR_BUTtex
p1631
aVR_CA2tex
p1632
aVR_CD2tex
p1633
aVR_CGLYtex
p1634
aVR_CHLtex
p1635
aVR_CHTBStex
p1636
aVR_CITtex
p1637
aVR_CLtex
p1638
aVR_CMPtex
p1639
aVR_CMtex
p1640
aVR_CO2tex
p1641
aVR_COBALT2tex
p1642
aVR_CRNDtex
p1643
aVR_CRNtex
p1644
aVR_CSNtex
p1645
aVR_CU2tex
p1646
aVR_CUtex
p1647
aVR_CYANtex
p1648
aVR_CYNTtex
p1649
aVR_CYSDtex
p1650
aVR_CYStex
p1651
aVR_CYTDtex
p1652
aVR_D_DASH_LACtex
p1653
aVR_DALAtex
p1654
aVR_DAMPtex
p1655
aVR_DAPtex
p1656
aVR_DCAtex
p1657
aVR_DCMPtex
p1658
aVR_DDGLCNtex
p1659
aVR_DGMPtex
p1660
aVR_DGSNtex
p1661
aVR_DHAtex
p1662
aVR_DIMPtex
p1663
aVR_DINStex
p1664
aVR_DMSOtex
p1665
aVR_DMStex
p1666
aVR_DOPAtex
p1667
aVR_DOXRBCNtex
p1668
aVR_DSERtex
p1669
aVR_DTMPtex
p1670
aVR_DUMPtex
p1671
aVR_ETHAtex
p1672
aVR_ETHSO3tex
p1673
aVR_ETOHtex
p1674
aVR_F6Ptex
p1675
aVR_FALDtex
p1676
aVR_FE2tex
p1677
aVR_FE3tex
p1678
aVR_FORtex
p1679
aVR_FRULYStex
p1680
aVR_FRUURtex
p1681
aVR_FRUtex
p1682
aVR_FUCtex
p1683
aVR_FUMtex
p1684
aVR_FUSAtex
p1685
aVR_G1Ptex
p1686
aVR_G3PCtex
p1687
aVR_G3PEtex
p1688
aVR_G3PGtex
p1689
aVR_G3PItex
p1690
aVR_G3PStex
p1691
aVR_G6Ptex
p1692
aVR_GAL1Ptex
p1693
aVR_GALBDtex
p1694
aVR_GALCTNLtex
p1695
aVR_GALCTNtex
p1696
aVR_GALCTtex
p1697
aVR_GALTtex
p1698
aVR_GALURtex
p1699
aVR_GALtex
p1700
aVR_GAMAN6Ptex
p1701
aVR_GAMtex
p1702
aVR_GBBTNtex
p1703
aVR_GDPtex
p1704
aVR_GLCNtex
p1705
aVR_GLCRtex
p1706
aVR_GLCUR1Ptex
p1707
aVR_GLCURtex
p1708
aVR_GLCtex
p1709
aVR_GLNtex
p1710
aVR_GLUtex
p1711
aVR_GLYALDtex
p1712
aVR_GLYBtex
p1713
aVR_GLYC2Ptex
p1714
aVR_GLYC3Ptex
p1715
aVR_GLYCAtex
p1716
aVR_GLYCLTtex
p1717
aVR_GLYCtex
p1718
aVR_GLYtex
p1719
aVR_GMPtex
p1720
aVR_GSNtex
p1721
aVR_GTHOXtex
p1722
aVR_GTHRDtex
p1723
aVR_GTPtex
p1724
aVR_H2O2tex
p1725
ag557
aVR_H2Stex
p1726
aVR_H2tex
p1727
aVR_HCINNMtex
p1728
aVR_HG2tex
p1729
aVR_HIStex
p1730
aVR_HOMtex
p1731
aVR_HPPPNtex
p1732
aVR_HXAtex
p1733
aVR_HYXNtex
p1734
aVR_Htex
p1735
aVR_IDONtex
p1736
aVR_ILEtex
p1737
aVR_IMPtex
p1738
aVR_INDOLEtex
p1739
aVR_INSTtex
p1740
aVR_ISETACtex
p1741
aVR_Ktex
p1742
aVR_L_DASH_LACtex
p1743
aVR_LALADGLUtex
p1744
aVR_LALALGLUtex
p1745
aVR_LCTStex
p1746
aVR_LEUtex
p1747
aVR_LIPOtex
p1748
aVR_LYStex
p1749
aVR_LYXtex
p1750
aVR_MALDtex
p1751
aVR_MALtex
p1752
aVR_MAN6Ptex
p1753
aVR_MANGLYCtex
p1754
aVR_MANtex
p1755
aVR_MELIBtex
p1756
aVR_MEOHtex
p1757
aVR_METDtex
p1758
aVR_METSOX1tex
p1759
aVR_METSOX2tex
p1760
aVR_METtex
p1761
aVR_MG2tex
p1762
aVR_MINCYCtex
p1763
aVR_MMETtex
p1764
aVR_MNLtex
p1765
aVR_MNtex
p1766
aVR_MOBDtex
p1767
aVR_MSO3tex
p1768
aVR_N2Otex
p1769
aVR_NACtex
p1770
aVR_NAtex
p1771
aVR_NH4tex
p1772
aVR_NI2tex
p1773
aVR_NMNtex
p1774
aVR_NO2tex
p1775
aVR_NO3tex
p1776
aVR_NOtex
p1777
aVR_O2Stex
p1778
aVR_O2tex
p1779
aVR_OCTAtex
p1780
aVR_ORNtex
p1781
aVR_OROTtex
p1782
aVR_PACALDtex
p1783
aVR_PEAMNtex
p1784
aVR_PHEtex
p1785
aVR_PItex
p1786
aVR_PNTOtex
p1787
aVR_PPALtex
p1788
aVR_PPAtex
p1789
aVR_PPPNtex
p1790
aVR_PPTtex
p1791
aVR_PROGLYtex
p1792
aVR_PROtex
p1793
aVR_PSCLYStex
p1794
aVR_PSERtex
p1795
aVR_PTRCtex
p1796
aVR_PYDAMtex
p1797
aVR_PYDXNtex
p1798
aVR_PYDXtex
p1799
aVR_PYRtex
p1800
aVR_QUIN2tex
p1801
aVR_R5Ptex
p1802
aVR_RIBtex
p1803
aVR_RMNtex
p1804
aVR_SBTtex
p1805
aVR_SELtex
p1806
aVR_SERtex
p1807
aVR_SKMtex
p1808
aVR_SLNTtex
p1809
aVR_SO2tex
p1810
aVR_SO3tex
p1811
aVR_SO4tex
p1812
aVR_SPMDtex
p1813
aVR_SUCCtex
p1814
aVR_SUCRtex
p1815
aVR_SULFACtex
p1816
aVR_TARTRDtex
p1817
aVR_TARTRtex
p1818
aVR_TAURtex
p1819
aVR_TCYNTtex
p1820
aVR_THMDtex
p1821
aVR_THMtex
p1822
aVR_THRPtex
p1823
aVR_THRtex
p1824
aVR_THYMtex
p1825
aVR_TMAOtex
p1826
aVR_TMAtex
p1827
aVR_TREtex
p1828
aVR_TRPtex
p1829
aVR_TSULtex
p1830
aVR_TTRCYCtex
p1831
aVR_TUNGStex
p1832
aVR_TYMtex
p1833
aVR_TYRPtex
p1834
aVR_TYRtex
p1835
aVR_UACGAMtex
p1836
aVR_UDPACGALtex
p1837
aVR_UDPGALtex
p1838
aVR_UDPGLCURtex
p1839
aVR_UDPGtex
p1840
aVR_UMPtex
p1841
aVR_URAtex
p1842
aVR_UREAtex
p1843
aVR_VALtex
p1844
aVR_XANtex
p1845
aVR_XMPtex
p1846
aVR_XTSNtex
p1847
aVR_XYLUtex
p1848
aVR_XYLtex
p1849
aVR_Zn2tex
p1850
asg7
g1578
ssVb3599-b2415-b2416
p1851
(dp1852
g3
I0
sg4
(lp1853
VR_MNLptspp
p1854
asg7
g1851
ssVb1329-b1244-b1245-b1246-b1247
p1855
(dp1856
g3
I0
sg4
(lp1857
VR_3PEPTabcpp
p1858
asg7
g1855
ssVb0323
p1859
(dp1860
g3
I0
sg4
(lp1861
VR_CBMKr
p1862
asg7
g1859
ssVb2234-b2235-b3781
p1863
(dp1864
g3
I0
sg4
(lp1865
VR_RNDR1
p1866
aVR_RNDR2
p1867
aVR_RNDR3
p1868
aVR_RNDR4
p1869
asg7
g1863
ssVb0679-b2415-b2416
p1870
(dp1871
g3
I0
sg4
(lp1872
VR_ACGAptspp
p1873
asg7
g1870
ssVb2866-b2867-b2868
p1874
(dp1875
g3
I0
sg4
(lp1876
VR_HXAND
p1877
aVR_XAND
p1878
asg7
g1874
ssVb0657-b1677
p1879
(dp1880
g3
I0
sg4
(lp1881
VR_ALPATE160pp
p1882
aVR_ALPATG160pp
p1883
asg7
g1879
ssVb3610-b2675-b2676
p1884
(dp1885
g3
I0
sg4
(lp1886
VR_RNDR1b
p1887
aVR_RNDR2b
p1888
aVR_RNDR3b
p1889
aVR_RNDR4b
p1890
asg7
g1884
ssVb3565
p1891
(dp1892
g3
I0
sg4
(lp1893
VR_XYLI1
p1894
aVR_XYLI2
p1895
asg7
g1891
ssVb3564
p1896
(dp1897
g3
I0
sg4
(lp1898
VR_DXYLK
p1899
aVR_XYLK
p1900
asg7
g1896
ssVb3161
p1901
(dp1902
g3
I0
sg4
(lp1903
VR_INDOLEt2rpp
p1904
ag460
asg7
g1901
ssVb0902-b3114
p1905
(dp1906
g3
I0
sg4
(lp1907
VR_OBTFL
p1908
aVR_PFL
p1909
asg7
g1905
ssVb2904-b2903-b2905-b0116
p1910
(dp1911
g3
I0
sg4
(lp1912
VR_GLYCL
p1913
asg7
g1910
ssS'enzyme_418'
p1914
(dp1915
g3
I0
sg4
(lp1916
VR_MINOHPtexi
p1917
asg7
g1914
ssS'enzyme_419'
p1918
(dp1919
g3
I0
sg4
(lp1920
VR_MLDCP1App
p1921
asg7
g1918
ssVb2366
p1922
(dp1923
g3
I0
sg4
(lp1924
VR_SERD_D
p1925
asg7
g1922
ssS'enzyme_148'
p1926
(dp1927
g3
I0
sg4
(lp1928
VR_EX_g6p_LPAREN_e_RPAREN_
p1929
asg7
g1926
ssS'enzyme_149'
p1930
(dp1931
g3
I0
sg4
(lp1932
VR_EX_gal_LPAREN_e_RPAREN_
p1933
asg7
g1930
ssVb0572-b0573-b0574-b0575
p1934
(dp1935
g3
I0
sg4
(lp1936
VR_AGt3
p1937
aVR_CUt3
p1938
asg7
g1934
ssS'enzyme_411'
p1939
(dp1940
g3
I0
sg4
(lp1941
VR_LALDO3
p1942
asg7
g1939
ssS'enzyme_412'
p1943
(dp1944
g3
I0
sg4
(lp1945
VR_LCARR
p1946
asg7
g1943
ssS'enzyme_413'
p1947
(dp1948
g3
I0
sg4
(lp1949
VR_LIPOt2pp
p1950
asg7
g1947
ssS'enzyme_414'
p1951
(dp1952
g3
I0
sg4
(lp1953
VR_MALt3pp
p1954
asg7
g1951
ssS'enzyme_415'
p1955
(dp1956
g3
I0
sg4
(lp1957
VR_METSOX1abcpp
p1958
asg7
g1955
ssS'enzyme_416'
p1959
(dp1960
g3
I0
sg4
(lp1961
VR_METSOX2abcpp
p1962
asg7
g1959
ssS'enzyme_417'
p1963
(dp1964
g3
I0
sg4
(lp1965
VR_MG2t3_2pp
p1966
asg7
g1963
ssS'enzyme_388'
p1967
(dp1968
g3
I0
sg4
(lp1969
VR_FE3HOXUtpp
p1970
asg7
g1967
ssS'enzyme_389'
p1971
(dp1972
g3
I0
sg4
(lp1973
VR_FE3abcpp
p1974
asg7
g1971
ssS'enzyme_380'
p1975
(dp1976
g3
I0
sg4
(lp1977
VR_DHORDfum
p1978
asg7
g1975
ssS'enzyme_381'
p1979
(dp1980
g3
I0
sg4
(lp1981
VR_DNMPPA
p1982
asg7
g1979
ssS'enzyme_382'
p1983
(dp1984
g3
I0
sg4
(lp1985
VR_ETHAt2pp
p1986
asg7
g1983
ssS'enzyme_383'
p1987
(dp1988
g3
I0
sg4
(lp1989
VR_FE3DHBZR
p1990
asg7
g1987
ssS'enzyme_384'
p1991
(dp1992
g3
I0
sg4
(lp1993
VR_FE3HOXR1
p1994
asg7
g1991
ssS'enzyme_385'
p1995
(dp1996
g3
I0
sg4
(lp1997
VR_FE3HOXR2
p1998
asg7
g1995
ssS'enzyme_386'
p1999
(dp2000
g3
I0
sg4
(lp2001
VR_FE3HOXR3
p2002
asg7
g1999
ssS'enzyme_387'
p2003
(dp2004
g3
I0
sg4
(lp2005
VR_FE3HOXUtex
p2006
asg7
g2003
ssVb3415
p2007
(dp2008
g3
I0
sg4
(lp2009
VR_GLCNt2rpp
p2010
asg7
g2007
ssVb3946
p2011
(dp2012
g3
I0
sg4
(lp2013
VR_F6PA
p2014
asg7
g2011
ssVb3417
p2015
(dp2016
g3
I0
sg4
(lp2017
VR_GLCP
p2018
aVR_GLCP2
p2019
aVR_MLTP1
p2020
aVR_MLTP2
p2021
aVR_MLTP3
p2022
asg7
g2015
ssVb3416
p2023
(dp2024
g3
I0
sg4
(lp2025
VR_AMALT1
p2026
aVR_AMALT2
p2027
aVR_AMALT3
p2028
aVR_AMALT4
p2029
asg7
g2023
ssVb3942
p2030
(dp2031
g3
I0
sg4
(lp2032
VR_CAT
p2033
asg7
g2030
ssVb3941
p2034
(dp2035
g3
I0
sg4
(lp2036
VR_MTHFR2
p2037
asg7
g2034
ssVb3412
p2038
(dp2039
g3
I0
sg4
(lp2040
VR_PMEACPE
p2041
asg7
g2038
ssVb2416
p2042
(dp2043
g3
I0
sg4
(lp2044
VR_CHTBSptspp
p2045
asg7
g2042
ssVb2414
p2046
(dp2047
g3
I0
sg4
(lp2048
VR_CYSS
p2049
asg7
g2046
ssVb2411
p2050
(dp2051
g3
I0
sg4
(lp2052
VR_NADDP
p2053
asg7
g2050
ssS'enzyme_37'
p2054
(dp2055
g3
I0
sg4
(lp2056
VR_EX_acgal1p_LPAREN_e_RPAREN_
p2057
asg7
g2054
ssVb3784
p2058
(dp2059
g3
I0
sg4
(lp2060
VR_ACGAMT
p2061
asg7
g2058
ssS'enzyme_35'
p2062
(dp2063
g3
I0
sg4
(lp2064
VR_EX_acald_LPAREN_e_RPAREN_
p2065
asg7
g2062
ssS'enzyme_34'
p2066
(dp2067
g3
I0
sg4
(lp2068
VR_EX_acac_LPAREN_e_RPAREN_
p2069
asg7
g2066
ssS'enzyme_33'
p2070
(dp2071
g3
I0
sg4
(lp2072
VR_EX_ac_LPAREN_e_RPAREN_
p2073
asg7
g2070
ssS'enzyme_32'
p2074
(dp2075
g3
I0
sg4
(lp2076
VR_EX_LalaLglu_LPAREN_e_RPAREN_
p2077
asg7
g2074
ssS'enzyme_31'
p2078
(dp2079
g3
I0
sg4
(lp2080
VR_EX_LalaDgluMdapDala_LPAREN_e_RPAREN_
p2081
asg7
g2078
ssS'enzyme_30'
p2082
(dp2083
g3
I0
sg4
(lp2084
VR_EX_LalaDgluMdap_LPAREN_e_RPAREN_
p2085
asg7
g2082
ssVb0068-b0067-b0066
p2086
(dp2087
g3
I0
sg4
(lp2088
VR_THMabcpp
p2089
asg7
g2086
ssVb2964
p2090
(dp2091
g3
I0
sg4
(lp2092
VR_ADNt2pp
p2093
aVR_CYTDt2pp
p2094
aVR_DADNt2pp
p2095
aVR_DCYTt2pp
p2096
aVR_DGSNt2pp
p2097
aVR_DINSt2pp
p2098
aVR_DURIt2pp
p2099
aVR_GSNt2pp
p2100
aVR_INSt2pp
p2101
aVR_THMDt2pp
p2102
aVR_URIt2pp
p2103
asg7
g2090
ssVb2965
p2104
(dp2105
g3
I0
sg4
(lp2106
VR_ORNDC
p2107
asg7
g2104
ssVb3789
p2108
(dp2109
g3
I0
sg4
(lp2110
VR_G1PTT
p2111
asg7
g2108
ssVb2963
p2112
(dp2113
g3
I0
sg4
(lp2114
VR_MLTGY1pp
p2115
aVR_MLTGY2pp
p2116
aVR_MLTGY3pp
p2117
aVR_MLTGY4pp
p2118
asg7
g2112
ssS'enzyme_39'
p2119
(dp2120
g3
I0
sg4
(lp2121
VR_EX_acgam1p_LPAREN_e_RPAREN_
p2122
asg7
g2119
ssS'enzyme_38'
p2123
(dp2124
g3
I0
sg4
(lp2125
VR_EX_acgam_LPAREN_e_RPAREN_
p2126
asg7
g2123
ssVb3212-b3213
p2127
(dp2128
g3
I0
sg4
(lp2129
VR_GLUSy
p2130
asg7
g2127
ssVb2091
p2131
(dp2132
g3
I0
sg4
(lp2133
VR_GLTPD
p2134
asg7
g2131
ssVb2097
p2135
(dp2136
g3
I0
sg4
(lp2137
VR_FBA
p2138
asg7
g2135
ssVb2563
p2139
(dp2140
g3
I0
sg4
(lp2141
VR_ACPS1
p2142
asg7
g2139
ssVb1064
p2143
(dp2144
g3
I0
sg4
(lp2145
g396
asg7
g2143
ssVb1062
p2146
(dp2147
g3
I0
sg4
(lp2148
VR_DHORTS
p2149
asg7
g2146
ssVb0655-b0654-b0653-b0652
p2150
(dp2151
g3
I0
sg4
(lp2152
VR_ASPabcpp
p2153
aVR_GLUabcpp
p2154
asg7
g2150
ssVb1993
p2155
(dp2156
g3
I0
sg4
(lp2157
VR_ACBIPGT
p2158
aVR_ADOCBIK
p2159
asg7
g2155
ssVb1991
p2160
(dp2161
g3
I0
sg4
(lp2162
VR_NNDMBRT
p2163
asg7
g2160
ssVb1488
p2164
(dp2165
g3
I0
sg4
(lp2166
VR_ALAALAD
p2167
asg7
g2164
ssVb1493
p2168
(dp2169
g3
I0
sg4
(lp2170
VR_GLUDC
p2171
asg7
g2168
ssVb0698-b0697-b0696
p2172
(dp2173
g3
I0
sg4
(lp2174
VR_Kabcpp
p2175
asg7
g2172
ssVb2788
p2176
(dp2177
g3
I0
sg4
(lp2178
VR_GLCRD
p2179
asg7
g2176
ssVb2789
p2180
(dp2181
g3
I0
sg4
(lp2182
VR_GALCTt2rpp
p2183
aVR_GLCRt2rpp
p2184
aVR_GLYCAt2rpp
p2185
asg7
g2180
ssVb2787
p2186
(dp2187
g3
I0
sg4
(lp2188
g2179
asg7
g2186
ssVb2784
p2189
(dp2190
g3
I0
sg4
(lp2191
VR_GDPDPK
p2192
aVR_GTPDPK
p2193
asg7
g2189
ssVb3577-b3578-b3579
p2194
(dp2195
g3
I0
sg4
(lp2196
VR_XYLUt2pp
p2197
asg7
g2194
ssVb2780
p2198
(dp2199
g3
I0
sg4
(lp2200
VR_CTPS2
p2201
asg7
g2198
ssVb2781
p2202
(dp2203
g3
I0
sg4
(lp2204
VR_NTPP1
p2205
aVR_NTPP2
p2206
aVR_NTPP3
p2207
aVR_NTPP4
p2208
ag909
aVR_NTPP6
p2209
aVR_NTPP7
p2210
aVR_NTPP8
p2211
asg7
g2202
ssVb4322
p2212
(dp2213
g3
I0
sg4
(lp2214
VR_MNNH
p2215
asg7
g2212
ssVb4323
p2216
(dp2217
g3
I0
sg4
(lp2218
VR_MANAO
p2219
asg7
g2216
ssVb1208
p2220
(dp2221
g3
I0
sg4
(lp2222
VR_CDPMEK
p2223
asg7
g2220
ssVb4321
p2224
(dp2225
g3
I0
sg4
(lp2226
VR_FRUURt2rpp
p2227
ag2010
asg7
g2224
ssVb1492
p2228
(dp2229
g3
I0
sg4
(lp2230
VR_GLUABUTt7pp
p2231
asg7
g2228
ssVb1206
p2232
(dp2233
g3
I0
sg4
(lp2234
VR_SO4t2pp
p2235
asg7
g2232
ssVb1207
p2236
(dp2237
g3
I0
sg4
(lp2238
VR_PRPPS
p2239
asg7
g2236
ssVb1192
p2240
(dp2241
g3
I0
sg4
(lp2242
VR_4PCP
p2243
aVR_AGM4PCP
p2244
aVR_AM4PCP
p2245
aVR_UM4PCP
p2246
asg7
g2240
ssVb1193
p2247
(dp2248
g3
I0
sg4
(lp2249
g2115
ag2116
ag2117
ag2118
asg7
g2247
ssVb1190
p2250
(dp2251
g3
I0
sg4
(lp2252
VR_ALAR
p2253
asg7
g2250
ssVb1197
p2254
(dp2255
g3
I0
sg4
(lp2256
VR_TREHpp
p2257
asg7
g2254
ssVb0420
p2258
(dp2259
g3
I0
sg4
(lp2260
VR_DXPS
p2261
asg7
g2258
ssVb0822
p2262
(dp2263
g3
I0
sg4
(lp2264
VR_F6PP
p2265
aVR_G3PT
p2266
aVR_G6PP
p2267
aVR_MN6PP
p2268
aVR_R5PP
p2269
asg7
g2262
ssVb0825
p2270
(dp2271
g3
I0
sg4
(lp2272
g2014
asg7
g2270
ssVb0827
p2273
(dp2274
g3
I0
sg4
(lp2275
VR_BMOCOS
p2276
aVR_BWCOS
p2277
aVR_MOCOS
p2278
aVR_WCOS
p2279
asg7
g2273
ssVb0826
p2280
(dp2281
g3
I0
sg4
(lp2282
VR_MPTSS
p2283
asg7
g2280
ssVb0828
p2284
(dp2285
g3
I0
sg4
(lp2286
VR_ASNN
p2287
asg7
g2284
ssS'enzyme_218'
p2288
(dp2289
g3
I0
sg4
(lp2290
VR_EX_maltpt_LPAREN_e_RPAREN_
p2291
asg7
g2288
ssVb3281
p2292
(dp2293
g3
I0
sg4
(lp2294
g1478
asg7
g2292
ssVb0684-b2515
p2295
(dp2296
g3
I0
sg4
(lp2297
VR_MECDPDH5
p2298
asg7
g2295
ssVb1849
p2299
(dp2300
g3
I0
sg4
(lp2301
g1122
aVR_GART
p2302
asg7
g2299
ssVb1661
p2303
(dp2304
g3
I0
sg4
(lp2305
VR_CFAS160E
p2306
aVR_CFAS160G
p2307
aVR_CFAS180E
p2308
aVR_CFAS180G
p2309
asg7
g2303
ssVb1662
p2310
(dp2311
g3
I0
sg4
(lp2312
VR_RBFSa
p2313
asg7
g2310
ssVb4290-b4289-b4288-b4287
p2314
(dp2315
g3
I0
sg4
(lp2316
VR_FE3DCITabcpp
p2317
asg7
g2314
ssVb4219-b2582
p2318
(dp2319
g3
I0
sg4
(lp2320
g590
asg7
g2318
ssVb1444
p2321
(dp2322
g3
I0
sg4
(lp2323
VR_ABUTD
p2324
asg7
g2321
ssVb0133
p2325
(dp2326
g3
I0
sg4
(lp2327
VR_PANTS
p2328
asg7
g2325
ssVb0131
p2329
(dp2330
g3
I0
sg4
(lp2331
VR_ASP1DC
p2332
asg7
g2329
ssVb0134
p2333
(dp2334
g3
I0
sg4
(lp2335
VR_MOHMT
p2336
asg7
g2333
ssVb1684-b1683-b1682-b1681
p2337
(dp2338
g3
I0
sg4
(lp2339
VR_S2FE2ST
p2340
aVR_S4FE4ST
p2341
asg7
g2337
ssVb4258
p2342
(dp2343
g3
I0
sg4
(lp2344
VR_VALTRS
p2345
asg7
g2342
ssVb2035-b2027
p2346
(dp2347
g3
I0
sg4
(lp2348
VR_O16AP1pp
p2349
aVR_O16AP2pp
p2350
aVR_O16AP3pp
p2351
asg7
g2346
ssVb4254
p2352
(dp2353
g3
I0
sg4
(lp2354
VR_OCBT
p2355
asg7
g2352
ssVb1599-b1600
p2356
(dp2357
g3
I0
sg4
(lp2358
VR_SPMDt3pp
p2359
asg7
g2356
ssVb0628
p2360
(dp2361
g3
I0
sg4
(lp2362
VR_LIPOS
p2363
asg7
g2360
ssVb0622
p2364
(dp2365
g3
I0
sg4
(lp2366
VR_LIPAHT2ex
p2367
aVR_LIPAHTex
p2368
asg7
g2364
ssVb0621
p2369
(dp2370
g3
I0
sg4
(lp2371
g438
ag440
ag442
ag443
asg7
g2369
ssVb0007
p2372
(dp2373
g3
I0
sg4
(lp2374
VR_ALAt4pp
p2375
aVR_GLYt4pp
p2376
asg7
g2372
ssVb0004
p2377
(dp2378
g3
I0
sg4
(lp2379
VR_4HTHRS
p2380
aVR_THRS
p2381
asg7
g2377
ssVb0003
p2382
(dp2383
g3
I0
sg4
(lp2384
VR_HSK
p2385
asg7
g2382
ssVb0002
p2386
(dp2387
g3
I0
sg4
(lp2388
VR_ASPK
p2389
aVR_HSDy
p2390
asg7
g2386
ssVb0009
p2391
(dp2392
g3
I0
sg4
(lp2393
VR_MPTAT
p2394
asg7
g2391
ssVb0008
p2395
(dp2396
g3
I0
sg4
(lp2397
VR_TALA
p2398
asg7
g2395
ssVb1539
p2399
(dp2400
g3
I0
sg4
(lp2401
VR_ATHRDHr
p2402
aVR_DSERDHr
p2403
aVR_LSERDHr
p2404
aVR_MSAR
p2405
asg7
g2399
ssVb4077
p2406
(dp2407
g3
I0
sg4
(lp2408
VR_ASPt2pp
p2409
aVR_GLUt2rpp
p2410
asg7
g2406
ssVb1533
p2411
(dp2412
g3
I0
sg4
(lp2413
g1312
ag1313
asg7
g2411
ssVb0480
p2414
(dp2415
g3
I0
sg4
(lp2416
VR_NTD10pp
p2417
aVR_NTD11pp
p2418
aVR_NTD12pp
p2419
aVR_NTD1pp
p2420
aVR_NTD2pp
p2421
aVR_NTD3pp
p2422
aVR_NTD4pp
p2423
aVR_NTD5pp
p2424
aVR_NTD6pp
p2425
aVR_NTD7pp
p2426
aVR_NTD8pp
p2427
aVR_NTD9pp
p2428
aVR_UACGALPpp
p2429
aVR_UACGAMPpp
p2430
aVR_UDPGALPpp
p2431
aVR_UDPGPpp
p2432
aVR_UGLCURPpp
p2433
asg7
g2414
ssVb0954
p2434
(dp2435
g3
I0
sg4
(lp2436
VR_3HAD100
p2437
aVR_3HAD120
p2438
aVR_3HAD121
p2439
aVR_3HAD140
p2440
aVR_3HAD141
p2441
aVR_3HAD160
p2442
aVR_3HAD161
p2443
aVR_3HAD180
p2444
aVR_3HAD181
p2445
aVR_3HAD40
p2446
aVR_3HAD60
p2447
aVR_3HAD80
p2448
aVR_T2DECAI
p2449
asg7
g2434
ssVb0485
p2450
(dp2451
g3
I0
sg4
(lp2452
g1545
asg7
g2450
ssVb0484
p2453
(dp2454
g3
I0
sg4
(lp2455
VR_CU1abcpp
p2456
asg7
g2453
ssVb0312
p2457
(dp2458
g3
I0
sg4
(lp2459
VR_BETALDHx
p2460
aVR_BETALDHy
p2461
asg7
g2457
ssVb0311
p2462
(dp2463
g3
I0
sg4
(lp2464
VR_CHOLD
p2465
asg7
g2462
ssVb0314
p2466
(dp2467
g3
I0
sg4
(lp2468
g1066
asg7
g2466
ssVb4476
p2469
(dp2470
g3
I0
sg4
(lp2471
g2010
asg7
g2469
ssVb4477
p2472
(dp2473
g3
I0
sg4
(lp2474
VR_DDPGALA
p2475
asg7
g2472
ssVb4474
p2476
(dp2477
g3
I0
sg4
(lp2478
VR_FRULYSE
p2479
asg7
g2476
ssVb4471
p2480
(dp2481
g3
I0
sg4
(lp2482
g1361
asg7
g2480
ssVb4478
p2483
(dp2484
g3
I0
sg4
(lp2485
VR_GALCTND
p2486
asg7
g2483
ssVb3041
p2487
(dp2488
g3
I0
sg4
(lp2489
VR_DB4PS
p2490
asg7
g2487
ssVb1778-b3781
p2491
(dp2492
g3
I0
sg4
(lp2493
VR_METSOXR2
p2494
asg7
g2491
ssVb0907
p2495
(dp2496
g3
I0
sg4
(lp2497
VR_OHPBAT
p2498
aVR_PSERT
p2499
asg7
g2495
ssVb0452
p2500
(dp2501
g3
I0
sg4
(lp2502
VR_FACOAE100
p2503
aVR_FACOAE120
p2504
aVR_FACOAE140
p2505
aVR_FACOAE141
p2506
aVR_FACOAE160
p2507
aVR_FACOAE161
p2508
aVR_FACOAE180
p2509
aVR_FACOAE181
p2510
aVR_FACOAE60
p2511
aVR_FACOAE80
p2512
asg7
g2500
ssVb3575
p2513
(dp2514
g3
I0
sg4
(lp2515
VR_DOGULNR
p2516
asg7
g2513
ssVb3572
p2517
(dp2518
g3
I0
sg4
(lp2519
VR_VPAMTr
p2520
asg7
g2517
ssVb3571
p2521
(dp2522
g3
I0
sg4
(lp2523
VR_AAMYLpp
p2524
asg7
g2521
ssVb2719-b2720-b2721-b2722-b2723-b2724
p2525
(dp2526
g3
I0
sg4
(lp2527
g895
asg7
g2525
ssVb3172
p2528
(dp2529
g3
I0
sg4
(lp2530
VR_ARGSS
p2531
asg7
g2528
ssVb3176
p2532
(dp2533
g3
I0
sg4
(lp2534
VR_PGAMT
p2535
asg7
g2532
ssVb3177
p2536
(dp2537
g3
I0
sg4
(lp2538
VR_DHPS2
p2539
asg7
g2536
ssVb3396-b1069
p2540
(dp2541
g3
I0
sg4
(lp2542
g1023
ag1024
asg7
g2540
ssVb0996-b0997
p2543
(dp2544
g3
I0
sg4
(lp2545
VR_TMAOR1pp
p2546
aVR_TMAOR2pp
p2547
asg7
g2543
ssVb2312
p2548
(dp2549
g3
I0
sg4
(lp2550
VR_GLUPRT
p2551
asg7
g2548
ssS'enzyme_159'
p2552
(dp2553
g3
I0
sg4
(lp2554
VR_EX_gbbtn_LPAREN_e_RPAREN_
p2555
asg7
g2552
ssS'enzyme_158'
p2556
(dp2557
g3
I0
sg4
(lp2558
VR_EX_gam6p_LPAREN_e_RPAREN_
p2559
asg7
g2556
ssS'enzyme_409'
p2560
(dp2561
g3
I0
sg4
(lp2562
VR_HYPOE
p2563
asg7
g2560
ssS'enzyme_408'
p2564
(dp2565
g3
I0
sg4
(lp2566
VR_HEX4
p2567
asg7
g2564
ssS'enzyme_155'
p2568
(dp2569
g3
I0
sg4
(lp2570
VR_EX_galt_LPAREN_e_RPAREN_
p2571
asg7
g2568
ssS'enzyme_154'
p2572
(dp2573
g3
I0
sg4
(lp2574
VR_EX_galctn_DASH_L_LPAREN_e_RPAREN_
p2575
asg7
g2572
ssS'enzyme_157'
p2576
(dp2577
g3
I0
sg4
(lp2578
VR_EX_gam_LPAREN_e_RPAREN_
p2579
asg7
g2576
ssS'enzyme_156'
p2580
(dp2581
g3
I0
sg4
(lp2582
VR_EX_galur_LPAREN_e_RPAREN_
p2583
asg7
g2580
ssS'enzyme_151'
p2584
(dp2585
g3
I0
sg4
(lp2586
VR_EX_gal1p_LPAREN_e_RPAREN_
p2587
asg7
g2584
ssS'enzyme_150'
p2588
(dp2589
g3
I0
sg4
(lp2590
VR_EX_gal_DASH_bD_LPAREN_e_RPAREN_
p2591
asg7
g2588
ssS'enzyme_153'
p2592
(dp2593
g3
I0
sg4
(lp2594
VR_EX_galctn_DASH_D_LPAREN_e_RPAREN_
p2595
asg7
g2592
ssS'enzyme_152'
p2596
(dp2597
g3
I0
sg4
(lp2598
VR_EX_galct_DASH_D_LPAREN_e_RPAREN_
p2599
asg7
g2596
ssVb3779
p2600
(dp2601
g3
I0
sg4
(lp2602
VR_GTPDPDP
p2603
asg7
g2600
ssS'enzyme_399'
p2604
(dp2605
g3
I0
sg4
(lp2606
VR_FEOXAMUtpp
p2607
asg7
g2604
ssS'enzyme_398'
p2608
(dp2609
g3
I0
sg4
(lp2610
VR_FEOXAMUtex
p2611
asg7
g2608
ssS'enzyme_397'
p2612
(dp2613
g3
I0
sg4
(lp2614
VR_FEENTERR3
p2615
asg7
g2612
ssVb3771
p2616
(dp2617
g3
I0
sg4
(lp2618
VR_DHAD1
p2619
aVR_DHAD2
p2620
asg7
g2616
ssS'enzyme_395'
p2621
(dp2622
g3
I0
sg4
(lp2623
VR_FEENTERR1
p2624
asg7
g2621
ssS'enzyme_394'
p2625
(dp2626
g3
I0
sg4
(lp2627
VR_FECRMUtpp
p2628
asg7
g2625
ssS'enzyme_393'
p2629
(dp2630
g3
I0
sg4
(lp2631
VR_FECRMUtex
p2632
asg7
g2629
ssS'enzyme_392'
p2633
(dp2634
g3
I0
sg4
(lp2635
VR_FECRMR3
p2636
asg7
g2633
ssS'enzyme_391'
p2637
(dp2638
g3
I0
sg4
(lp2639
VR_FECRMR2
p2640
asg7
g2637
ssS'enzyme_390'
p2641
(dp2642
g3
I0
sg4
(lp2643
VR_FECRMR1
p2644
asg7
g2641
ssS'enzyme_28'
p2645
(dp2646
g3
I0
sg4
(lp2647
VR_EX_5mtr_LPAREN_e_RPAREN_
p2648
asg7
g2645
ssS'enzyme_29'
p2649
(dp2650
g3
I0
sg4
(lp2651
VR_EX_LalaDglu_LPAREN_e_RPAREN_
p2652
asg7
g2649
ssVb2428
p2653
(dp2654
g3
I0
sg4
(lp2655
VR_ACM6PH
p2656
asg7
g2653
ssVb3403
p2657
(dp2658
g3
I0
sg4
(lp2659
VR_PPCK
p2660
asg7
g2657
ssVb3956
p2661
(dp2662
g3
I0
sg4
(lp2663
VR_PPC
p2664
asg7
g2661
ssVb3957
p2665
(dp2666
g3
I0
sg4
(lp2667
VR_ACODA
p2668
aVR_NACODA
p2669
asg7
g2665
ssS'enzyme_20'
p2670
(dp2671
g3
I0
sg4
(lp2672
VR_EX_3gmp_LPAREN_e_RPAREN_
p2673
asg7
g2670
ssS'enzyme_21'
p2674
(dp2675
g3
I0
sg4
(lp2676
VR_EX_3hcinnm_LPAREN_e_RPAREN_
p2677
asg7
g2674
ssS'enzyme_22'
p2678
(dp2679
g3
I0
sg4
(lp2680
VR_EX_3hpp_LPAREN_e_RPAREN_
p2681
asg7
g2678
ssS'enzyme_23'
p2682
(dp2683
g3
I0
sg4
(lp2684
VR_EX_3hpppn_LPAREN_e_RPAREN_
p2685
asg7
g2682
ssS'enzyme_24'
p2686
(dp2687
g3
I0
sg4
(lp2688
VR_EX_3ump_LPAREN_e_RPAREN_
p2689
asg7
g2686
ssS'enzyme_25'
p2690
(dp2691
g3
I0
sg4
(lp2692
VR_EX_4abut_LPAREN_e_RPAREN_
p2693
asg7
g2690
ssS'enzyme_26'
p2694
(dp2695
g3
I0
sg4
(lp2696
VR_EX_4hoxpacd_LPAREN_e_RPAREN_
p2697
asg7
g2694
ssVb3409
p2698
(dp2699
g3
I0
sg4
(lp2700
VR_FE2abcpp
p2701
asg7
g2698
ssVb3794
p2702
(dp2703
g3
I0
sg4
(lp2704
VR_ACMAMUT
p2705
asg7
g2702
ssVb3792
p2706
(dp2707
g3
I0
sg4
(lp2708
VR_ECAtpp
p2709
asg7
g2706
ssVb3790
p2710
(dp2711
g3
I0
sg4
(lp2712
VR_TDPADGAT
p2713
asg7
g2710
ssVb3791
p2714
(dp2715
g3
I0
sg4
(lp2716
VR_TDPAGTA
p2717
asg7
g2714
ssVb2957
p2718
(dp2719
g3
I0
sg4
(lp2720
VR_ASNNpp
p2721
aVR_GLUNpp
p2722
asg7
g2718
ssVb2954
p2723
(dp2724
g3
I0
sg4
(lp2725
VR_NTPP10
p2726
aVR_NTPP11
p2727
aVR_NTPP9
p2728
asg7
g2723
ssS'enzyme_410'
p2729
(dp2730
g3
I0
sg4
(lp2731
VR_HYXNtpp
p2732
asg7
g2729
ssVb3860-b1185
p2733
(dp2734
g3
I0
sg4
(lp2735
VR_DSBAO1
p2736
aVR_DSBAO2
p2737
asg7
g2733
ssVb2558
p2738
(dp2739
g3
I0
sg4
(lp2740
g2115
ag2116
ag2117
ag2118
asg7
g2738
ssVb2557
p2741
(dp2742
g3
I0
sg4
(lp2743
VR_PRFGS
p2744
asg7
g2741
ssVb2224
p2745
(dp2746
g3
I0
sg4
(lp2747
g723
asg7
g2745
ssVb2552
p2748
(dp2749
g3
I0
sg4
(lp2750
VR_NODOx
p2751
aVR_NODOy
p2752
asg7
g2748
ssVb2551
p2753
(dp2754
g3
I0
sg4
(lp2755
g408
ag409
aVR_GHMT2r
p2756
aVR_THFAT
p2757
ag410
ag411
asg7
g2753
ssVb2045
p2758
(dp2759
g3
I0
sg4
(lp2760
VR_GALKr
p2761
asg7
g2758
ssVb1059
p2762
(dp2763
g3
I0
sg4
(lp2764
VR_MTRPOX
p2765
aVR_SARCOX
p2766
asg7
g2762
ssS'enzyme_145'
p2767
(dp2768
g3
I0
sg4
(lp2769
VR_EX_g3pg_LPAREN_e_RPAREN_
p2770
asg7
g2767
ssVb2041
p2771
(dp2772
g3
I0
sg4
(lp2773
VR_TDPGDH
p2774
asg7
g2771
ssVb2040
p2775
(dp2776
g3
I0
sg4
(lp2777
VR_TDPDRR
p2778
asg7
g2775
ssS'enzyme_142'
p2779
(dp2780
g3
I0
sg4
(lp2781
VR_EX_g1p_LPAREN_e_RPAREN_
p2782
asg7
g2779
ssVb2049
p2783
(dp2784
g3
I0
sg4
(lp2785
VR_MAN1PT2
p2786
asg7
g2783
ssVb2048
p2787
(dp2788
g3
I0
sg4
(lp2789
VR_PMANM
p2790
asg7
g2787
ssVb1054
p2791
(dp2792
g3
I0
sg4
(lp2793
VR_EDTXS1
p2794
asg7
g2791
ssS'enzyme_140'
p2795
(dp2796
g3
I0
sg4
(lp2797
VR_EX_fum_LPAREN_e_RPAREN_
p2798
asg7
g2795
ssS'enzyme_141'
p2799
(dp2800
g3
I0
sg4
(lp2801
VR_EX_fusa_LPAREN_e_RPAREN_
p2802
asg7
g2799
ssVb1702
p2803
(dp2804
g3
I0
sg4
(lp2805
VR_PPS
p2806
asg7
g2803
ssVb3605
p2807
(dp2808
g3
I0
sg4
(lp2809
g494
ag495
asg7
g2807
ssVb1094-b0181
p2810
(dp2811
g3
I0
sg4
(lp2812
VR_UAGAAT
p2813
asg7
g2810
ssVb3603
p2814
(dp2815
g3
I0
sg4
(lp2816
g1284
ag1285
ag1286
asg7
g2814
ssVb4311
p2817
(dp2818
g3
I0
sg4
(lp2819
g1609
asg7
g2817
ssVb0886-b0887
p2820
(dp2821
g3
I0
sg4
(lp2822
VR_CYSabc2pp
p2823
aVR_GTHRDabc2pp
p2824
asg7
g2820
ssVb0837
p2825
(dp2826
g3
I0
sg4
(lp2827
VR_GLCDpp
p2828
asg7
g2825
ssVb0839
p2829
(dp2830
g3
I0
sg4
(lp2831
VR_MDDCP1pp
p2832
aVR_MDDCP2pp
p2833
aVR_MDDCP3pp
p2834
aVR_MDDCP4pp
p2835
aVR_MDDCP5pp
p2836
asg7
g2829
ssVb1302
p2837
(dp2838
g3
I0
sg4
(lp2839
VR_ABTA
p2840
asg7
g2837
ssVb1301
p2841
(dp2842
g3
I0
sg4
(lp2843
VR_GGPTRCO
p2844
asg7
g2841
ssVb1300
p2845
(dp2846
g3
I0
sg4
(lp2847
VR_ALDD2x
p2848
aVR_GGGABADr
p2849
asg7
g2845
ssVb1308
p2850
(dp2851
g3
I0
sg4
(lp2852
VR_CYANSTpp
p2853
asg7
g2850
ssVb3945
p2854
(dp2855
g3
I0
sg4
(lp2856
VR_ALR4x
p2857
aVR_APPLDHr
p2858
aVR_GLYCDx
p2859
aVR_LALDO2x
p2860
asg7
g2854
ssVb4268
p2861
(dp2862
g3
I0
sg4
(lp2863
g1329
asg7
g2861
ssVb4260
p2864
(dp2865
g3
I0
sg4
(lp2866
g1032
ag1033
asg7
g2864
ssVb4267
p2867
(dp2868
g3
I0
sg4
(lp2869
VR_IDOND
p2870
aVR_IDOND2
p2871
asg7
g2867
ssVb4266
p2872
(dp2873
g3
I0
sg4
(lp2874
VR_5DGLCNR
p2875
asg7
g2872
ssVb4265
p2876
(dp2877
g3
I0
sg4
(lp2878
VR_5DGLCNt2rpp
p2879
ag2010
aVR_IDONt2rpp
p2880
asg7
g2876
ssVb2418
p2881
(dp2882
g3
I0
sg4
(lp2883
VR_HMPK1
p2884
aVR_PYDAMK
p2885
aVR_PYDXK
p2886
aVR_PYDXNK
p2887
asg7
g2881
ssVb2994-b2995-b2996-b2997
p2888
(dp2889
g3
I0
sg4
(lp2890
g895
ag896
ag897
asg7
g2888
ssVb3940
p2891
(dp2892
g3
I0
sg4
(lp2893
g2389
ag2390
asg7
g2891
ssVb0638
p2894
(dp2895
g3
I0
sg4
(lp2896
VR_RZ5PP
p2897
asg7
g2894
ssVb1236
p2898
(dp2899
g3
I0
sg4
(lp2900
VR_GALUi
p2901
asg7
g2898
ssVb1232
p2902
(dp2903
g3
I0
sg4
(lp2904
VR_FTHFD
p2905
asg7
g2902
ssVb0630
p2906
(dp2907
g3
I0
sg4
(lp2908
VR_LIPOCT
p2909
asg7
g2906
ssVb0632
p2910
(dp2911
g3
I0
sg4
(lp2912
g2832
ag2833
ag2834
ag2835
ag2836
asg7
g2910
ssVb0635
p2913
(dp2914
g3
I0
sg4
(lp2915
VR_MCTP1App
p2916
aVR_MCTP2App
p2917
asg7
g2913
ssVb1238
p2918
(dp2919
g3
I0
sg4
(lp2920
VR_DURIK1
p2921
aVR_TMDK1
p2922
asg7
g2918
ssVb4042
p2923
(dp2924
g3
I0
sg4
(lp2925
VR_DAGK120
p2926
aVR_DAGK140
p2927
aVR_DAGK141
p2928
aVR_DAGK160
p2929
aVR_DAGK161
p2930
aVR_DAGK180
p2931
aVR_DAGK181
p2932
asg7
g2923
ssVb4040
p2933
(dp2934
g3
I0
sg4
(lp2935
VR_HBZOPT
p2936
asg7
g2933
ssVb0019
p2937
(dp2938
g3
I0
sg4
(lp2939
VR_NAt3_2pp
p2940
asg7
g2937
ssVb2143
p2941
(dp2942
g3
I0
sg4
(lp2943
VR_CYTD
p2944
aVR_DCYTD
p2945
asg7
g2941
ssVb0494
p2946
(dp2947
g3
I0
sg4
(lp2948
VR_LPLIPAL1A120pp
p2949
aVR_LPLIPAL1A140pp
p2950
aVR_LPLIPAL1A141pp
p2951
aVR_LPLIPAL1A160pp
p2952
aVR_LPLIPAL1A161pp
p2953
aVR_LPLIPAL1A180pp
p2954
aVR_LPLIPAL1A181pp
p2955
aVR_LPLIPAL1E120pp
p2956
aVR_LPLIPAL1E140pp
p2957
aVR_LPLIPAL1E141pp
p2958
aVR_LPLIPAL1E160pp
p2959
aVR_LPLIPAL1E161pp
p2960
aVR_LPLIPAL1E180pp
p2961
aVR_LPLIPAL1E181pp
p2962
aVR_LPLIPAL1G120pp
p2963
aVR_LPLIPAL1G140pp
p2964
aVR_LPLIPAL1G141pp
p2965
aVR_LPLIPAL1G160pp
p2966
aVR_LPLIPAL1G161pp
p2967
aVR_LPLIPAL1G180pp
p2968
aVR_LPLIPAL1G181pp
p2969
asg7
g2946
ssS'enzyme_36'
p2970
(dp2971
g3
I0
sg4
(lp2972
VR_EX_acgal_LPAREN_e_RPAREN_
p2973
asg7
g2970
ssVb3787
p2974
(dp2975
g3
I0
sg4
(lp2976
VR_UACMAMO
p2977
asg7
g2974
ssVb0124
p2978
(dp2979
g3
I0
sg4
(lp2980
g2828
asg7
g2978
ssVb0125
p2981
(dp2982
g3
I0
sg4
(lp2983
VR_GUAPRT
p2984
aVR_HXPRT
p2985
asg7
g2981
ssVb0126
p2986
(dp2987
g3
I0
sg4
(lp2988
g1092
asg7
g2986
ssVb3786
p2989
(dp2990
g3
I0
sg4
(lp2991
VR_UAG2E
p2992
asg7
g2989
ssVb0120
p2993
(dp2994
g3
I0
sg4
(lp2995
VR_ADMDC
p2996
asg7
g2993
ssVb3857-b3856
p2997
(dp2998
g3
I0
sg4
(lp2999
VR_BMOGDS1
p3000
aVR_BMOGDS2
p3001
aVR_BWCOGDS1
p3002
aVR_BWCOGDS2
p3003
aVR_MOGDS
p3004
asg7
g2997
ssVb0123
p3005
(dp3006
g3
I0
sg4
(lp3007
VR_CU1Opp
p3008
aVR_FEROpp
p3009
asg7
g3005
ssVb0945
p3010
(dp3011
g3
I0
sg4
(lp3012
VR_DHORD2
p3013
aVR_DHORD5
p3014
asg7
g3010
ssVb4291-b1252-b3005-b3006
p3015
(dp3016
g3
I0
sg4
(lp3017
VR_FE3DCITtonex
p3018
asg7
g3015
ssVb3867
p3019
(dp3020
g3
I0
sg4
(lp3021
VR_CPPPGO2
p3022
asg7
g3019
ssVb3788
p3023
(dp3024
g3
I0
sg4
(lp3025
g2774
asg7
g3023
ssVb2234-b2235-b2582
p3026
(dp3027
g3
I0
sg4
(lp3028
g1866
ag1867
ag1868
ag1869
asg7
g3026
ssVb3091
p3029
(dp3030
g3
I0
sg4
(lp3031
VR_ALTRH
p3032
asg7
g3029
ssVb3093
p3033
(dp3034
g3
I0
sg4
(lp3035
VR_GALURt2rpp
p3036
aVR_GLCURt2rpp
p3037
asg7
g3033
ssVb3092
p3038
(dp3039
g3
I0
sg4
(lp3040
VR_GUI1
p3041
aVR_GUI2
p3042
asg7
g3038
ssVb3546
p3043
(dp3044
g3
I0
sg4
(lp3045
VR_PETNT161pp
p3046
aVR_PETNT181pp
p3047
asg7
g3043
ssVb4055
p3048
(dp3049
g3
I0
sg4
(lp3050
VR_G2PPpp
p3051
ag2417
ag2418
ag2419
ag2420
ag2421
ag2422
ag2423
ag2424
ag2425
ag2426
ag2427
ag2428
aVR_PSP_Lpp
p3052
aVR_PTHRpp
p3053
aVR_R5PPpp
p3054
aVR_TYRPpp
p3055
asg7
g3048
ssS'enzyme_242'
p3056
(dp3057
g3
I0
sg4
(lp3058
VR_EX_ni2_LPAREN_e_RPAREN_
p3059
asg7
g3056
ssS'enzyme_160'
p3060
(dp3061
g3
I0
sg4
(lp3062
VR_EX_gdp_LPAREN_e_RPAREN_
p3063
asg7
g3060
ssS'enzyme_161'
p3064
(dp3065
g3
I0
sg4
(lp3066
VR_EX_glc_LPAREN_e_RPAREN_
p3067
asg7
g3064
ssS'enzyme_162'
p3068
(dp3069
g3
I0
sg4
(lp3070
VR_EX_glcn_LPAREN_e_RPAREN_
p3071
asg7
g3068
ssS'enzyme_163'
p3072
(dp3073
g3
I0
sg4
(lp3074
VR_EX_glcr_LPAREN_e_RPAREN_
p3075
asg7
g3072
ssS'enzyme_164'
p3076
(dp3077
g3
I0
sg4
(lp3078
VR_EX_glcur_LPAREN_e_RPAREN_
p3079
asg7
g3076
ssS'enzyme_165'
p3080
(dp3081
g3
I0
sg4
(lp3082
VR_EX_glcur1p_LPAREN_e_RPAREN_
p3083
asg7
g3080
ssS'enzyme_166'
p3084
(dp3085
g3
I0
sg4
(lp3086
VR_EX_gln_DASH_L_LPAREN_e_RPAREN_
p3087
asg7
g3084
ssS'enzyme_167'
p3088
(dp3089
g3
I0
sg4
(lp3090
VR_EX_glu_DASH_L_LPAREN_e_RPAREN_
p3091
asg7
g3088
ssS'enzyme_168'
p3092
(dp3093
g3
I0
sg4
(lp3094
VR_EX_gly_LPAREN_e_RPAREN_
p3095
asg7
g3092
ssS'enzyme_169'
p3096
(dp3097
g3
I0
sg4
(lp3098
VR_EX_glyald_LPAREN_e_RPAREN_
p3099
asg7
g3096
ssS'enzyme_362'
p3100
(dp3101
g3
I0
sg4
(lp3102
VR_CLPNH120pp
p3103
asg7
g3100
ssS'enzyme_363'
p3104
(dp3105
g3
I0
sg4
(lp3106
VR_CLPNH140pp
p3107
asg7
g3104
ssS'enzyme_360'
p3108
(dp3109
g3
I0
sg4
(lp3110
VR_CDGS
p3111
asg7
g3108
ssS'enzyme_361'
p3112
(dp3113
g3
I0
sg4
(lp3114
VR_CITt3pp
p3115
asg7
g3112
ssS'enzyme_366'
p3116
(dp3117
g3
I0
sg4
(lp3118
VR_CLPNH161pp
p3119
asg7
g3116
ssS'enzyme_367'
p3120
(dp3121
g3
I0
sg4
(lp3122
VR_CLPNH180pp
p3123
asg7
g3120
ssS'enzyme_364'
p3124
(dp3125
g3
I0
sg4
(lp3126
VR_CLPNH141pp
p3127
asg7
g3124
ssS'enzyme_365'
p3128
(dp3129
g3
I0
sg4
(lp3130
VR_CLPNH160pp
p3131
asg7
g3128
ssS'enzyme_368'
p3132
(dp3133
g3
I0
sg4
(lp3134
VR_CLPNH181pp
p3135
asg7
g3132
ssS'enzyme_369'
p3136
(dp3137
g3
I0
sg4
(lp3138
VR_CMPN
p3139
asg7
g3136
ssVb3433
p3140
(dp3141
g3
I0
sg4
(lp3142
VR_ASAD
p3143
asg7
g3140
ssVb3432
p3144
(dp3145
g3
I0
sg4
(lp3146
VR_GLBRAN2
p3147
asg7
g3144
ssS'enzyme_188'
p3148
(dp3149
g3
I0
sg4
(lp3150
VR_EX_halipa_LPAREN_e_RPAREN_
p3151
asg7
g3148
ssVb3430
p3152
(dp3153
g3
I0
sg4
(lp3154
VR_GLGC
p3155
asg7
g3152
ssS'enzyme_59'
p3156
(dp3157
g3
I0
sg4
(lp3158
VR_EX_arab_DASH_L_LPAREN_e_RPAREN_
p3159
asg7
g3156
ssS'enzyme_58'
p3160
(dp3161
g3
I0
sg4
(lp3162
VR_EX_anhgm_LPAREN_e_RPAREN_
p3163
asg7
g3160
ssVb2942
p3164
(dp3165
g3
I0
sg4
(lp3166
VR_METAT
p3167
asg7
g3164
ssVb2943
p3168
(dp3169
g3
I0
sg4
(lp3170
VR_GALt2pp
p3171
aVR_GLCt2pp
p3172
asg7
g3168
ssS'enzyme_182'
p3173
(dp3174
g3
I0
sg4
(lp3175
VR_EX_h_LPAREN_e_RPAREN_
p3176
asg7
g3173
ssS'enzyme_183'
p3177
(dp3178
g3
I0
sg4
(lp3179
VR_EX_h2_LPAREN_e_RPAREN_
p3180
asg7
g3177
ssS'enzyme_180'
p3181
(dp3182
g3
I0
sg4
(lp3183
VR_EX_gtp_LPAREN_e_RPAREN_
p3184
asg7
g3181
ssS'enzyme_181'
p3185
(dp3186
g3
I0
sg4
(lp3187
VR_EX_gua_LPAREN_e_RPAREN_
p3188
asg7
g3185
ssS'enzyme_186'
p3189
(dp3190
g3
I0
sg4
(lp3191
VR_EX_h2s_LPAREN_e_RPAREN_
p3192
asg7
g3189
ssS'enzyme_50'
p3193
(dp3194
g3
I0
sg4
(lp3195
VR_EX_akg_LPAREN_e_RPAREN_
p3196
asg7
g3193
ssS'enzyme_184'
p3197
(dp3198
g3
I0
sg4
(lp3199
VR_EX_h2o_LPAREN_e_RPAREN_
p3200
asg7
g3197
ssS'enzyme_185'
p3201
(dp3202
g3
I0
sg4
(lp3203
VR_EX_h2o2_LPAREN_e_RPAREN_
p3204
asg7
g3201
ssVb2239
p3205
(dp3206
g3
I0
sg4
(lp3207
VR_GPDDA1pp
p3208
aVR_GPDDA2pp
p3209
aVR_GPDDA3pp
p3210
aVR_GPDDA4pp
p3211
aVR_GPDDA5pp
p3212
asg7
g3205
ssVb2541
p3213
(dp3214
g3
I0
sg4
(lp3215
VR_DHCIND
p3216
aVR_DHPPD
p3217
asg7
g3213
ssVb2232
p3218
(dp3219
g3
I0
sg4
(lp3220
VR_DMQMT
p3221
aVR_OHPHM
p3222
asg7
g3218
ssVb3958
p3223
(dp3224
g3
I0
sg4
(lp3225
VR_AGPR
p3226
asg7
g3223
ssVb2052
p3227
(dp3228
g3
I0
sg4
(lp3229
VR_GDMANE
p3230
aVR_GOFUCR
p3231
asg7
g3227
ssVb2053
p3232
(dp3233
g3
I0
sg4
(lp3234
VR_GMAND
p3235
asg7
g3232
ssVb2417-b1101-b2415-b2416
p3236
(dp3237
g3
I0
sg4
(lp3238
g1873
aVR_GLCptspp
p3239
asg7
g3236
ssVb2051
p3240
(dp3241
g3
I0
sg4
(lp3242
VR_GDPMNH
p3243
asg7
g3240
ssVb1992
p3244
(dp3245
g3
I0
sg4
(lp3246
VR_ADOCBLS
p3247
asg7
g3244
ssVb2435
p3248
(dp3249
g3
I0
sg4
(lp3250
VR_AGM3PApp
p3251
aVR_AGM4PApp
p3252
asg7
g3248
ssVb2436
p3253
(dp3254
g3
I0
sg4
(lp3255
VR_CPPPGO
p3256
asg7
g3253
ssS'enzyme_219'
p3257
(dp3258
g3
I0
sg4
(lp3259
VR_EX_malttr_LPAREN_e_RPAREN_
p3260
asg7
g3257
ssS'enzyme_212'
p3261
(dp3262
g3
I0
sg4
(lp3263
VR_EX_lys_DASH_L_LPAREN_e_RPAREN_
p3264
asg7
g3261
ssS'enzyme_213'
p3265
(dp3266
g3
I0
sg4
(lp3267
VR_EX_lyx_DASH_L_LPAREN_e_RPAREN_
p3268
asg7
g3265
ssS'enzyme_210'
p3269
(dp3270
g3
I0
sg4
(lp3271
VR_EX_lipa_cold_LPAREN_e_RPAREN_
p3272
asg7
g3269
ssS'enzyme_211'
p3273
(dp3274
g3
I0
sg4
(lp3275
VR_EX_lipoate_LPAREN_e_RPAREN_
p3276
asg7
g3273
ssS'enzyme_216'
p3277
(dp3278
g3
I0
sg4
(lp3279
VR_EX_malt_LPAREN_e_RPAREN_
p3280
asg7
g3277
ssS'enzyme_217'
p3281
(dp3282
g3
I0
sg4
(lp3283
VR_EX_malthx_LPAREN_e_RPAREN_
p3284
asg7
g3281
ssS'enzyme_214'
p3285
(dp3286
g3
I0
sg4
(lp3287
VR_EX_mal_DASH_D_LPAREN_e_RPAREN_
p3288
asg7
g3285
ssS'enzyme_215'
p3289
(dp3290
g3
I0
sg4
(lp3291
VR_EX_mal_DASH_L_LPAREN_e_RPAREN_
p3292
asg7
g3289
ssVb4301
p3293
(dp3294
g3
I0
sg4
(lp3295
VR_RPE
p3296
asg7
g3293
ssVb0114-b0115-b0116
p3297
(dp3298
g3
I0
sg4
(lp3299
VR_PDH
p3300
asg7
g3297
ssVb3736-b3737-b3738-b3731-b3732-b3733-b3734-b3735
p3301
(dp3302
g3
I0
sg4
(lp3303
VR_ATPS4rpp
p3304
asg7
g3301
ssVb2762-b1654
p3305
(dp3306
g3
I0
sg4
(lp3307
g659
asg7
g3305
ssVb3821
p3308
(dp3309
g3
I0
sg4
(lp3310
VR_PLIPA1A120pp
p3311
aVR_PLIPA1A140pp
p3312
aVR_PLIPA1A141pp
p3313
aVR_PLIPA1A160pp
p3314
aVR_PLIPA1A161pp
p3315
aVR_PLIPA1A180pp
p3316
aVR_PLIPA1A181pp
p3317
aVR_PLIPA1E120pp
p3318
aVR_PLIPA1E140pp
p3319
aVR_PLIPA1E141pp
p3320
aVR_PLIPA1E160pp
p3321
aVR_PLIPA1E161pp
p3322
aVR_PLIPA1E180pp
p3323
aVR_PLIPA1E181pp
p3324
aVR_PLIPA1G120pp
p3325
aVR_PLIPA1G140pp
p3326
aVR_PLIPA1G141pp
p3327
aVR_PLIPA1G160pp
p3328
aVR_PLIPA1G161pp
p3329
aVR_PLIPA1G180pp
p3330
aVR_PLIPA1G181pp
p3331
aVR_PLIPA2A120pp
p3332
aVR_PLIPA2A140pp
p3333
aVR_PLIPA2A141pp
p3334
aVR_PLIPA2A160pp
p3335
aVR_PLIPA2A161pp
p3336
aVR_PLIPA2A180pp
p3337
aVR_PLIPA2A181pp
p3338
aVR_PLIPA2E120pp
p3339
aVR_PLIPA2E140pp
p3340
aVR_PLIPA2E141pp
p3341
aVR_PLIPA2E160pp
p3342
aVR_PLIPA2E161pp
p3343
aVR_PLIPA2E180pp
p3344
aVR_PLIPA2E181pp
p3345
aVR_PLIPA2G120pp
p3346
aVR_PLIPA2G140pp
p3347
aVR_PLIPA2G141pp
p3348
aVR_PLIPA2G160pp
p3349
aVR_PLIPA2G161pp
p3350
aVR_PLIPA2G180pp
p3351
aVR_PLIPA2G181pp
p3352
asg7
g3308
ssS'enzyme_1'
p3353
(dp3354
g3
I0
sg4
(lp3355
VR_DM_5DRIB
p3356
asg7
g3353
ssS'enzyme_0'
p3357
(dp3358
g3
I0
sg4
(lp3359
VR_DM_4CRSOL
p3360
asg7
g3357
ssS'enzyme_3'
p3361
(dp3362
g3
I0
sg4
(lp3363
VR_DM_AMOB
p3364
asg7
g3361
ssS'enzyme_2'
p3365
(dp3366
g3
I0
sg4
(lp3367
VR_DM_AACALD
p3368
asg7
g3365
ssS'enzyme_5'
p3369
(dp3370
g3
I0
sg4
(lp3371
VR_DM_OXAM
p3372
asg7
g3369
ssS'enzyme_4'
p3373
(dp3374
g3
I0
sg4
(lp3375
VR_DM_MTHTHF
p3376
asg7
g3373
ssS'enzyme_7'
p3377
(dp3378
g3
I0
sg4
(lp3379
VR_EX_12ppd_DASH_S_LPAREN_e_RPAREN_
p3380
asg7
g3377
ssS'enzyme_6'
p3381
(dp3382
g3
I0
sg4
(lp3383
VR_EX_12ppd_DASH_R_LPAREN_e_RPAREN_
p3384
asg7
g3381
ssS'enzyme_9'
p3385
(dp3386
g3
I0
sg4
(lp3387
VR_EX_15dap_LPAREN_e_RPAREN_
p3388
asg7
g3385
ssS'enzyme_8'
p3389
(dp3390
g3
I0
sg4
(lp3391
VR_EX_14glucan_LPAREN_e_RPAREN_
p3392
asg7
g3389
ssVb3624
p3393
(dp3394
g3
I0
sg4
(lp3395
VR_MOAT3C
p3396
asg7
g3393
ssVb3625
p3397
(dp3398
g3
I0
sg4
(lp3399
VR_HEPK2
p3400
asg7
g3397
ssVb1319
p3401
(dp3402
g3
I0
sg4
(lp3403
g557
asg7
g3401
ssVb3503-b1064
p3404
(dp3405
g3
I0
sg4
(lp3406
VR_ASR
p3407
asg7
g3404
ssVb2895-b4238
p3408
(dp3409
g3
I0
sg4
(lp3410
VR_RNTR1c2
p3411
aVR_RNTR2c2
p3412
aVR_RNTR3c2
p3413
aVR_RNTR4c2
p3414
asg7
g3408
ssVb3823
p3415
(dp3416
g3
I0
sg4
(lp3417
VR_THRt2pp
p3418
asg7
g3415
ssVb1223
p3419
(dp3420
g3
I0
sg4
(lp3421
g649
ag958
asg7
g3419
ssVb2893
p3422
(dp3423
g3
I0
sg4
(lp3424
VR_DSBCGT
p3425
asg7
g3422
ssVb2890
p3426
(dp3427
g3
I0
sg4
(lp3428
g943
asg7
g3426
ssVb4053
p3429
(dp3430
g3
I0
sg4
(lp3431
g2253
asg7
g3429
ssVb4054
p3432
(dp3433
g3
I0
sg4
(lp3434
VR_LEUTAi
p3435
ag1576
ag1577
asg7
g3432
ssVb0576
p3436
(dp3437
g3
I0
sg4
(lp3438
g459
ag461
asg7
g3436
ssVb0578
p3439
(dp3440
g3
I0
sg4
(lp3441
VR_DHPTDNR
p3442
aVR_DHPTDNRN
p3443
asg7
g3439
ssVb0763-b0764-b0765
p3444
(dp3445
g3
I0
sg4
(lp3446
VR_MOBDabcpp
p3447
aVR_SULabcpp
p3448
aVR_TUNGSabcpp
p3449
asg7
g3444
ssVb4544-b2258
p3450
(dp3451
g3
I0
sg4
(lp3452
VR_ULA4Ntppi
p3453
asg7
g3450
ssVb0155
p3454
(dp3455
g3
I0
sg4
(lp3456
VR_CLt3_2pp
p3457
asg7
g3454
ssVb0154
p3458
(dp3459
g3
I0
sg4
(lp3460
VR_G1SAT
p3461
asg7
g3458
ssVb0159
p3462
(dp3463
g3
I0
sg4
(lp3464
VR_5DOAN
p3465
aVR_AHCYSNS
p3466
aVR_MTAN
p3467
asg7
g3462
ssVb3826
p3468
(dp3469
g3
I0
sg4
(lp3470
g1521
asg7
g3468
ssVb3200-b3201-b3199-b4261-b4262
p3471
(dp3472
g3
I0
sg4
(lp3473
VR_ACOLIPAabctex
p3474
aVR_CLIPAabctex
p3475
aVR_COLIPAPabctex
p3476
aVR_COLIPAabctex
p3477
aVR_ECA4COLIPAabctex
p3478
aVR_ENLIPAabctex
p3479
aVR_K2L4Aabctex
p3480
aVR_LIPAabctex
p3481
aVR_O16A4COLIPAabctex
p3482
asg7
g3471
ssVb0733-b0734
p3483
(dp3484
g3
I0
sg4
(lp3485
g672
asg7
g3483
ssVb1260-b1261
p3486
(dp3487
g3
I0
sg4
(lp3488
VR_TRPS1
p3489
aVR_TRPS2
p3490
aVR_TRPS3
p3491
asg7
g3486
ssVb0207
p3492
(dp3493
g3
I0
sg4
(lp3494
VR_ALR2
p3495
aVR_DKGLCNR1
p3496
asg7
g3492
ssVb0200
p3497
(dp3498
g3
I0
sg4
(lp3499
VR_GMHEPPA
p3500
asg7
g3497
ssVb4087-b4088-b4086
p3501
(dp3502
g3
I0
sg4
(lp3503
VR_ALLabcpp
p3504
aVR_RIBabcpp
p3505
asg7
g3501
ssVb3089
p3506
(dp3507
g3
I0
sg4
(lp3508
VR_SERt4pp
p3509
aVR_THRt4pp
p3510
asg7
g3506
ssVb2762-b0849
p3511
(dp3512
g3
I0
sg4
(lp3513
g659
asg7
g3511
ssVb2677-b2678-b2679
p3514
(dp3515
g3
I0
sg4
(lp3516
VR_CRNDabcpp
p3517
aVR_CRNabcpp
p3518
aVR_CTBTabcpp
p3519
aVR_PROabcpp
p3520
asg7
g3514
ssVb3454-b3455-b3457-b3458-b3456
p3521
(dp3522
g3
I0
sg4
(lp3523
g1467
asg7
g3521
ssVb4136-b3781
p3524
(dp3525
g3
I0
sg4
(lp3526
g1110
asg7
g3524
ssVb0071-b0072
p3527
(dp3528
g3
I0
sg4
(lp3529
VR_IPPMIa
p3530
aVR_IPPMIb
p3531
asg7
g3527
ssVb3449
p3532
(dp3533
g3
I0
sg4
(lp3534
VR_GPDDA1
p3535
aVR_GPDDA2
p3536
aVR_GPDDA3
p3537
aVR_GPDDA4
p3538
aVR_GPDDA5
p3539
asg7
g3532
ssVb0615-b0616-b0617-b0614
p3540
(dp3541
g3
I0
sg4
(lp3542
VR_CITL
p3543
asg7
g3540
ssVb3793-b3785
p3544
(dp3545
g3
I0
sg4
(lp3546
VR_ECAP1pp
p3547
aVR_ECAP2pp
p3548
aVR_ECAP3pp
p3549
asg7
g3544
ssS'enzyme_177'
p3550
(dp3551
g3
I0
sg4
(lp3552
VR_EX_gsn_LPAREN_e_RPAREN_
p3553
asg7
g3550
ssS'enzyme_176'
p3554
(dp3555
g3
I0
sg4
(lp3556
VR_EX_gmp_LPAREN_e_RPAREN_
p3557
asg7
g3554
ssS'enzyme_175'
p3558
(dp3559
g3
I0
sg4
(lp3560
VR_EX_glyclt_LPAREN_e_RPAREN_
p3561
asg7
g3558
ssS'enzyme_174'
p3562
(dp3563
g3
I0
sg4
(lp3564
VR_EX_glyc3p_LPAREN_e_RPAREN_
p3565
asg7
g3562
ssS'enzyme_173'
p3566
(dp3567
g3
I0
sg4
(lp3568
VR_EX_glyc2p_LPAREN_e_RPAREN_
p3569
asg7
g3566
ssVb2919
p3570
(dp3571
g3
I0
sg4
(lp3572
VR_MMCD
p3573
asg7
g3570
ssS'enzyme_171'
p3574
(dp3575
g3
I0
sg4
(lp3576
VR_EX_glyc_LPAREN_e_RPAREN_
p3577
asg7
g3574
ssS'enzyme_170'
p3578
(dp3579
g3
I0
sg4
(lp3580
VR_EX_glyb_LPAREN_e_RPAREN_
p3581
asg7
g3578
ssS'enzyme_179'
p3582
(dp3583
g3
I0
sg4
(lp3584
VR_EX_gthrd_LPAREN_e_RPAREN_
p3585
asg7
g3582
ssS'enzyme_178'
p3586
(dp3587
g3
I0
sg4
(lp3588
VR_EX_gthox_LPAREN_e_RPAREN_
p3589
asg7
g3586
ssS'enzyme_371'
p3590
(dp3591
g3
I0
sg4
(lp3592
VR_CPGNR2
p3593
asg7
g3590
ssS'enzyme_370'
p3594
(dp3595
g3
I0
sg4
(lp3596
VR_CPGNR1
p3597
asg7
g3594
ssS'enzyme_373'
p3598
(dp3599
g3
I0
sg4
(lp3600
VR_CPGNUtex
p3601
asg7
g3598
ssS'enzyme_372'
p3602
(dp3603
g3
I0
sg4
(lp3604
VR_CPGNR3
p3605
asg7
g3602
ssS'enzyme_375'
p3606
(dp3607
g3
I0
sg4
(lp3608
VR_CYSDabcpp
p3609
asg7
g3606
ssS'enzyme_374'
p3610
(dp3611
g3
I0
sg4
(lp3612
VR_CPGNUtpp
p3613
asg7
g3610
ssS'enzyme_377'
p3614
(dp3615
g3
I0
sg4
(lp3616
VR_DAPabcpp
p3617
asg7
g3614
ssVb3553
p3618
(dp3619
g3
I0
sg4
(lp3620
VR_2DGULRGx
p3621
aVR_2DGULRGy
p3622
aVR_2DGULRx
p3623
aVR_2DGULRy
p3624
aVR_DKGLCNR2x
p3625
aVR_DKGLCNR2y
p3626
aVR_GLYCLTDx
p3627
aVR_GLYCLTDy
p3628
aVR_HPYRRx
p3629
aVR_HPYRRy
p3630
asg7
g3618
ssS'enzyme_379'
p3631
(dp3632
g3
I0
sg4
(lp3633
VR_DHBSH
p3634
asg7
g3631
ssS'enzyme_378'
p3635
(dp3636
g3
I0
sg4
(lp3637
VR_DHAtpp
p3638
asg7
g3635
ssS'enzyme_199'
p3639
(dp3640
g3
I0
sg4
(lp3641
VR_EX_indole_LPAREN_e_RPAREN_
p3642
asg7
g3639
ssVb2930
p3643
(dp3644
g3
I0
sg4
(lp3645
VR_FBP
p3646
asg7
g3643
ssVb2914
p3647
(dp3648
g3
I0
sg4
(lp3649
VR_RPI
p3650
asg7
g3647
ssVb3428
p3651
(dp3652
g3
I0
sg4
(lp3653
g2018
ag2019
asg7
g3651
ssVb3429
p3654
(dp3655
g3
I0
sg4
(lp3656
VR_GLCS1
p3657
asg7
g3654
ssVb2937
p3658
(dp3659
g3
I0
sg4
(lp3660
VR_AGMT
p3661
asg7
g3658
ssS'enzyme_49'
p3662
(dp3663
g3
I0
sg4
(lp3664
VR_EX_agm_LPAREN_e_RPAREN_
p3665
asg7
g3662
ssS'enzyme_191'
p3666
(dp3667
g3
I0
sg4
(lp3668
VR_EX_hg2_LPAREN_e_RPAREN_
p3669
asg7
g3666
ssVb2938
p3670
(dp3671
g3
I0
sg4
(lp3672
VR_ARGDCpp
p3673
asg7
g3670
ssS'enzyme_44'
p3674
(dp3675
g3
I0
sg4
(lp3676
VR_EX_acser_LPAREN_e_RPAREN_
p3677
asg7
g3674
ssS'enzyme_45'
p3678
(dp3679
g3
I0
sg4
(lp3680
VR_EX_ade_LPAREN_e_RPAREN_
p3681
asg7
g3678
ssS'enzyme_42'
p3682
(dp3683
g3
I0
sg4
(lp3684
VR_EX_acnam_LPAREN_e_RPAREN_
p3685
asg7
g3682
ssS'enzyme_43'
p3686
(dp3687
g3
I0
sg4
(lp3688
VR_EX_acolipa_LPAREN_e_RPAREN_
p3689
asg7
g3686
ssS'enzyme_40'
p3690
(dp3691
g3
I0
sg4
(lp3692
VR_EX_acmana_LPAREN_e_RPAREN_
p3693
asg7
g3690
ssS'enzyme_41'
p3694
(dp3695
g3
I0
sg4
(lp3696
VR_EX_acmum_LPAREN_e_RPAREN_
p3697
asg7
g3694
ssVb4034-b4033-b4032-b4035
p3698
(dp3699
g3
I0
sg4
(lp3700
VR_14GLUCANabcpp
p3701
aVR_MALTHXabcpp
p3702
aVR_MALTPTabcpp
p3703
aVR_MALTTRabcpp
p3704
aVR_MALTTTRabcpp
p3705
aVR_MALTabcpp
p3706
asg7
g3698
ssVb3882
p3707
(dp3708
g3
I0
sg4
(lp3709
VR_GHBDHx
p3710
asg7
g3707
ssVb2523
p3711
(dp3712
g3
I0
sg4
(lp3713
g1032
ag1033
asg7
g3711
ssVb2066
p3714
(dp3715
g3
I0
sg4
(lp3716
VR_CYTDK2
p3717
aVR_URIK2
p3718
asg7
g3714
ssVb2065
p3719
(dp3720
g3
I0
sg4
(lp3721
VR_DCTPD
p3722
asg7
g3719
ssVb2203-b2206-b2202-b2205-b2204
p3723
(dp3724
g3
I0
sg4
(lp3725
VR_NO3R1bpp
p3726
asg7
g3723
ssVb2599
p3727
(dp3728
g3
I0
sg4
(lp3729
g204
aVR_PPNDH
p3730
asg7
g3727
ssVb2417-b2415-b2416-b4240
p3731
(dp3732
g3
I0
sg4
(lp3733
VR_TREptspp
p3734
asg7
g3731
ssVb2841
p3735
(dp3736
g3
I0
sg4
(lp3737
VR_ARBt2rpp
p3738
asg7
g3735
ssS'enzyme_209'
p3739
(dp3740
g3
I0
sg4
(lp3741
VR_EX_lipa_LPAREN_e_RPAREN_
p3742
asg7
g3739
ssS'enzyme_208'
p3743
(dp3744
g3
I0
sg4
(lp3745
VR_EX_leu_DASH_L_LPAREN_e_RPAREN_
p3746
asg7
g3743
ssVb2114
p3747
(dp3748
g3
I0
sg4
(lp3749
VR_METTRS
p3750
asg7
g3747
ssS'enzyme_201'
p3751
(dp3752
g3
I0
sg4
(lp3753
VR_EX_ins_LPAREN_e_RPAREN_
p3754
asg7
g3751
ssS'enzyme_200'
p3755
(dp3756
g3
I0
sg4
(lp3757
VR_EX_inost_LPAREN_e_RPAREN_
p3758
asg7
g3755
ssS'enzyme_203'
p3759
(dp3760
g3
I0
sg4
(lp3761
VR_EX_k_LPAREN_e_RPAREN_
p3762
asg7
g3759
ssVb3994
p3763
(dp3764
g3
I0
sg4
(lp3765
VR_AMPMS2
p3766
asg7
g3763
ssS'enzyme_205'
p3767
(dp3768
g3
I0
sg4
(lp3769
VR_EX_lac_DASH_D_LPAREN_e_RPAREN_
p3770
asg7
g3767
ssS'enzyme_204'
p3771
(dp3772
g3
I0
sg4
(lp3773
VR_EX_kdo2lipid4_LPAREN_e_RPAREN_
p3774
asg7
g3771
ssS'enzyme_207'
p3775
(dp3776
g3
I0
sg4
(lp3777
VR_EX_lcts_LPAREN_e_RPAREN_
p3778
asg7
g3775
ssS'enzyme_206'
p3779
(dp3780
g3
I0
sg4
(lp3781
VR_EX_lac_DASH_L_LPAREN_e_RPAREN_
p3782
asg7
g3779
ssVb1106
p3783
(dp3784
g3
I0
sg4
(lp3785
VR_TMK
p3786
asg7
g3783
ssVb2264
p3787
(dp3788
g3
I0
sg4
(lp3789
VR_SEPHCHCS
p3790
asg7
g3787
ssVb0784-b0785
p3791
(dp3792
g3
I0
sg4
(lp3793
VR_MPTS
p3794
asg7
g3791
ssVb1814
p3795
(dp3796
g3
I0
sg4
(lp3797
g1361
asg7
g3795
ssVb1812
p3798
(dp3799
g3
I0
sg4
(lp3800
g1545
asg7
g3798
ssVb0813
p3801
(dp3802
g3
I0
sg4
(lp3803
g22
ag3418
asg7
g3801
ssVb1033
p3804
(dp3805
g3
I0
sg4
(lp3806
g3627
ag3628
ag3629
ag3630
asg7
g3804
ssVb1901-b1900-b4460
p3807
(dp3808
g3
I0
sg4
(lp3809
VR_ARBabcpp
p3810
asg7
g3807
ssVb4209
p3811
(dp3812
g3
I0
sg4
(lp3813
VR_FESR
p3814
asg7
g3811
ssVb0789
p3815
(dp3816
g3
I0
sg4
(lp3817
VR_CLPNS120pp
p3818
aVR_CLPNS140pp
p3819
aVR_CLPNS141pp
p3820
aVR_CLPNS160pp
p3821
aVR_CLPNS161pp
p3822
aVR_CLPNS180pp
p3823
aVR_CLPNS181pp
p3824
asg7
g3815
ssVb3726-b3725-b3727-b3728
p3825
(dp3826
g3
I0
sg4
(lp3827
VR_PIuabcpp
p3828
asg7
g3825
ssVb3566-b3567-b3568
p3829
(dp3830
g3
I0
sg4
(lp3831
VR_XYLabcpp
p3832
asg7
g3829
ssS'enzyme_124'
p3833
(dp3834
g3
I0
sg4
(lp3835
VR_EX_fe2_LPAREN_e_RPAREN_
p3836
asg7
g3833
ssS'enzyme_437'
p3837
(dp3838
g3
I0
sg4
(lp3839
VR_OXAMTC
p3840
asg7
g3837
ssVb4079-b2481-b2482-b2483-b2484-b2485-b2486-b2487-b2488-b2489-b2490
p3841
(dp3842
g3
I0
sg4
(lp3843
g574
asg7
g3841
ssS'enzyme_434'
p3844
(dp3845
g3
I0
sg4
(lp3846
VR_OMMBLHX3
p3847
asg7
g3844
ssS'enzyme_435'
p3848
(dp3849
g3
I0
sg4
(lp3850
VR_OMPHHX3
p3851
asg7
g3848
ssS'enzyme_432'
p3852
(dp3853
g3
I0
sg4
(lp3854
VR_NMNt7pp
p3855
asg7
g3852
ssVb0805-b1252-b3005-b3006
p3856
(dp3857
g3
I0
sg4
(lp3858
g1512
asg7
g3856
ssVb1781
p3859
(dp3860
g3
I0
sg4
(lp3861
g3495
asg7
g3859
ssVb3744
p3862
(dp3863
g3
I0
sg4
(lp3864
VR_ASNS2
p3865
asg7
g3862
ssS'enzyme_430'
p3866
(dp3867
g3
I0
sg4
(lp3868
VR_NMNDA
p3869
asg7
g3866
ssS'enzyme_431'
p3870
(dp3871
g3
I0
sg4
(lp3872
VR_NMNN
p3873
asg7
g3870
ssVb1764
p3874
(dp3875
g3
I0
sg4
(lp3876
VR_SELNPS
p3877
asg7
g3874
ssVb1767
p3878
(dp3879
g3
I0
sg4
(lp3880
g2287
asg7
g3878
ssVb1761
p3881
(dp3882
g3
I0
sg4
(lp3883
VR_GLUDy
p3884
asg7
g3881
ssVb1768
p3885
(dp3886
g3
I0
sg4
(lp3887
VR_NNAM
p3888
asg7
g3885
ssVb0963
p3889
(dp3890
g3
I0
sg4
(lp3891
VR_MGSA
p3892
asg7
g3889
ssS'enzyme_46'
p3893
(dp3894
g3
I0
sg4
(lp3895
VR_EX_adn_LPAREN_e_RPAREN_
p3896
asg7
g3893
ssVb0968
p3897
(dp3898
g3
I0
sg4
(lp3899
VR_APH120
p3900
aVR_APH140
p3901
aVR_APH141
p3902
aVR_APH160
p3903
aVR_APH161
p3904
aVR_APH180
p3905
aVR_APH181
p3906
asg7
g3897
ssS'enzyme_128'
p3907
(dp3908
g3
I0
sg4
(lp3909
VR_EX_fe3hox_LPAREN_e_RPAREN_
p3910
asg7
g3907
ssVb3747
p3911
(dp3912
g3
I0
sg4
(lp3913
VR_Kt2pp
p3914
asg7
g3911
ssVb2615
p3915
(dp3916
g3
I0
sg4
(lp3917
VR_NADK
p3918
asg7
g3915
ssVb0142
p3919
(dp3920
g3
I0
sg4
(lp3921
VR_HPPK2
p3922
asg7
g3919
ssVb4192
p3923
(dp3924
g3
I0
sg4
(lp3925
VR_ASCBPL
p3926
asg7
g3923
ssVb4197
p3927
(dp3928
g3
I0
sg4
(lp3929
VR_X5PL3E
p3930
asg7
g3927
ssVb4196
p3931
(dp3932
g3
I0
sg4
(lp3933
g617
asg7
g3931
ssVb4198
p3934
(dp3935
g3
I0
sg4
(lp3936
g613
asg7
g3934
ssVb0149
p3937
(dp3938
g3
I0
sg4
(lp3939
g2916
aVR_MCTP1Bpp
p3940
ag2917
asg7
g3937
ssS'enzyme_47'
p3941
(dp3942
g3
I0
sg4
(lp3943
VR_EX_adocbl_LPAREN_e_RPAREN_
p3944
asg7
g3941
ssVb0368
p3945
(dp3946
g3
I0
sg4
(lp3947
VR_TAUDO
p3948
asg7
g3945
ssVb0369
p3949
(dp3950
g3
I0
sg4
(lp3951
VR_PPBNGS
p3952
asg7
g3949
ssVb2895-b2515
p3953
(dp3954
g3
I0
sg4
(lp3955
g2298
asg7
g3953
ssVb0212
p3956
(dp3957
g3
I0
sg4
(lp3958
VR_GLYOX
p3959
asg7
g3956
ssVb2422-b2425-b2424-b2423
p3960
(dp3961
g3
I0
sg4
(lp3962
g3447
aVR_SELtpp
p3963
aVR_SLNTtpp
p3964
ag3448
aVR_TSULabcpp
p3965
asg7
g3960
ssVb2987
p3966
(dp3967
g3
I0
sg4
(lp3968
VR_PIt2rpp
p3969
asg7
g3966
ssVb4070-b4071-b4072-b4073
p3970
(dp3971
g3
I0
sg4
(lp3972
VR_NTRIR3pp
p3973
aVR_NTRIR4pp
p3974
asg7
g3970
ssVb2988
p3975
(dp3976
g3
I0
sg4
(lp3977
VR_GSPMDA
p3978
aVR_GSPMDS
p3979
asg7
g3975
ssVb3960
p3980
(dp3981
g3
I0
sg4
(lp3982
VR_ARGSL
p3983
asg7
g3980
ssVb3182
p3984
(dp3985
g3
I0
sg4
(lp3986
g2832
ag2833
ag2834
ag2835
ag2836
aVR_MDDEP1pp
p3987
aVR_MDDEP2pp
p3988
aVR_MDDEP3pp
p3989
aVR_MDDEP4pp
p3990
asg7
g3984
ssVb3639
p3991
(dp3992
g3
I0
sg4
(lp3993
VR_PPCDC
p3994
aVR_PPNCL2
p3995
asg7
g3991
ssVb3634
p3996
(dp3997
g3
I0
sg4
(lp3998
VR_PTPATi
p3999
asg7
g3996
ssVb3189
p4000
(dp4001
g3
I0
sg4
(lp4002
VR_UAGCVT
p4003
asg7
g4000
ssVb3631
p4004
(dp4005
g3
I0
sg4
(lp4006
VR_GLCTR1
p4007
asg7
g4004
ssVb3630
p4008
(dp4009
g3
I0
sg4
(lp4010
VR_HEPK1
p4011
asg7
g4008
ssVb3633
p4012
(dp4013
g3
I0
sg4
(lp4014
VR_MOAT
p4015
aVR_MOAT2
p4016
asg7
g4012
ssVb3632
p4017
(dp4018
g3
I0
sg4
(lp4019
VR_HEPT3
p4020
asg7
g4017
ssVb2328
p4021
(dp4022
g3
I0
sg4
(lp4023
g3987
ag3988
ag3989
ag3990
asg7
g4021
ssVb2329
p4024
(dp4025
g3
I0
sg4
(lp4026
VR_CHORS
p4027
asg7
g4024
ssVb3365-b3366
p4028
(dp4029
g3
I0
sg4
(lp4030
VR_NTRIR2x
p4031
asg7
g4028
ssVb2320
p4032
(dp4033
g3
I0
sg4
(lp4034
VR_PERD
p4035
asg7
g4032
ssVb2323
p4036
(dp4037
g3
I0
sg4
(lp4038
g263
ag264
aVR_3OAS121
p4039
ag265
aVR_3OAS141
p4040
ag266
aVR_3OAS161
p4041
ag267
ag269
ag270
ag271
aVR_MACPD
p4042
aVR_OPMEACPS
p4043
asg7
g4036
ssS'enzyme_344'
p4044
(dp4045
g3
I0
sg4
(lp4046
VR_ACGAL1PPpp
p4047
asg7
g4044
ssS'enzyme_345'
p4048
(dp4049
g3
I0
sg4
(lp4050
VR_ACGAM1PPpp
p4051
asg7
g4048
ssS'enzyme_346'
p4052
(dp4053
g3
I0
sg4
(lp4054
VR_ACt2rpp
p4055
asg7
g4052
ssS'enzyme_347'
p4056
(dp4057
g3
I0
sg4
(lp4058
VR_AGM4PCPpp
p4059
asg7
g4056
ssS'enzyme_340'
p4060
(dp4061
g3
I0
sg4
(lp4062
VR_3HPPtpp
p4063
asg7
g4060
ssS'enzyme_341'
p4064
(dp4065
g3
I0
sg4
(lp4066
VR_4PCPpp
p4067
asg7
g4064
ssS'enzyme_342'
p4068
(dp4069
g3
I0
sg4
(lp4070
VR_5MTRtpp
p4071
asg7
g4068
ssVb3526
p4072
(dp4073
g3
I0
sg4
(lp4074
VR_DDGLK
p4075
asg7
g4072
ssVb3528
p4076
(dp4077
g3
I0
sg4
(lp4078
VR_ASPt2_2pp
p4079
aVR_FUMt2_2pp
p4080
aVR_MALDt2_2pp
p4081
aVR_MALt2_2pp
p4082
aVR_OROTt2_2pp
p4083
aVR_SUCCt2_2pp
p4084
asg7
g4076
ssS'enzyme_348'
p4085
(dp4086
g3
I0
sg4
(lp4087
VR_ALAt2rpp
p4088
asg7
g4085
ssS'enzyme_349'
p4089
(dp4090
g3
I0
sg4
(lp4091
VR_ALDD4
p4092
asg7
g4089
ssS'enzyme_73'
p4093
(dp4094
g3
I0
sg4
(lp4095
VR_EX_cbl1_LPAREN_e_RPAREN_
p4096
asg7
g4093
ssS'enzyme_72'
p4097
(dp4098
g3
I0
sg4
(lp4099
VR_EX_cbi_LPAREN_e_RPAREN_
p4100
asg7
g4097
ssS'enzyme_71'
p4101
(dp4102
g3
I0
sg4
(lp4103
VR_EX_ca2_LPAREN_e_RPAREN_
p4104
asg7
g4101
ssS'enzyme_70'
p4105
(dp4106
g3
I0
sg4
(lp4107
VR_EX_butso3_LPAREN_e_RPAREN_
p4108
asg7
g4105
ssS'enzyme_77'
p4109
(dp4110
g3
I0
sg4
(lp4111
VR_EX_chtbs_LPAREN_e_RPAREN_
p4112
asg7
g4109
ssS'enzyme_76'
p4113
(dp4114
g3
I0
sg4
(lp4115
VR_EX_chol_LPAREN_e_RPAREN_
p4116
asg7
g4113
ssS'enzyme_75'
p4117
(dp4118
g3
I0
sg4
(lp4119
VR_EX_cgly_LPAREN_e_RPAREN_
p4120
asg7
g4117
ssS'enzyme_74'
p4121
(dp4122
g3
I0
sg4
(lp4123
VR_EX_cd2_LPAREN_e_RPAREN_
p4124
asg7
g4121
ssVb1719
p4125
(dp4126
g3
I0
sg4
(lp4127
VR_THRTRS
p4128
asg7
g4125
ssS'enzyme_79'
p4129
(dp4130
g3
I0
sg4
(lp4131
VR_EX_cl_LPAREN_e_RPAREN_
p4132
asg7
g4129
ssS'enzyme_78'
p4133
(dp4134
g3
I0
sg4
(lp4135
VR_EX_cit_LPAREN_e_RPAREN_
p4136
asg7
g4133
ssVb2215
p4137
(dp4138
g3
I0
sg4
(lp4139
g1581
ag1582
ag1583
ag1584
ag1585
ag1586
ag1587
ag1588
ag1589
ag1590
ag1591
ag1592
ag1593
ag1594
ag1595
ag1596
ag1597
ag1598
ag1599
ag1600
ag1601
ag1602
ag1603
ag1604
ag1605
ag1606
ag1607
ag1608
ag1609
ag1610
ag1611
ag1612
ag1613
ag1614
ag1615
ag1616
ag1617
ag1618
ag1619
ag1620
ag1621
ag1622
ag1623
ag1624
ag1625
ag1626
ag1627
ag1628
ag1629
ag1630
ag1631
ag1632
ag1633
ag1634
ag1635
ag1636
ag1637
ag1638
ag1639
ag1640
ag1641
ag1642
ag1643
ag1644
ag1645
ag1646
ag1647
ag1648
ag1649
ag1650
ag1651
ag1652
ag1653
ag1654
ag1655
ag1656
ag1657
ag1658
ag1659
ag1660
ag1661
ag1662
ag1663
ag1664
ag1665
ag1666
ag1667
ag1668
ag1669
ag1670
ag1671
ag1672
ag1673
ag1674
ag1675
ag1676
ag1677
ag1678
ag1679
ag1680
ag1681
ag1682
ag1683
ag1684
ag1685
ag1686
ag1687
ag1688
ag1689
ag1690
ag1691
ag1692
ag1693
ag1694
ag1695
ag1696
ag1697
ag1698
ag1699
ag1700
ag1701
ag1702
ag1703
ag1704
ag1705
ag1706
ag1707
ag1708
ag1709
ag1710
ag1711
ag1712
ag1713
ag1714
ag1715
ag1716
ag1717
ag1718
ag1719
ag1720
ag1721
ag1722
ag1723
ag1724
ag1725
ag557
ag1726
ag1727
ag1728
ag1729
ag1730
ag1731
ag1732
ag1733
ag1734
ag1735
ag1736
ag1737
ag1738
ag1739
ag1740
ag1741
ag1742
ag1743
ag1744
ag1745
ag1746
ag1747
ag1748
ag1749
ag1750
ag1751
ag1752
ag1753
ag1754
ag1755
ag1756
ag1757
ag1758
ag1759
ag1760
ag1761
ag1762
ag1763
ag1764
ag1765
ag1766
ag1767
ag1768
ag1769
ag1770
ag1771
ag1772
ag1773
ag1774
ag1775
ag1776
ag1777
ag1778
ag1779
ag1780
ag1781
ag1782
ag1783
ag1784
ag1785
ag1786
ag1787
ag1788
ag1789
ag1790
ag1791
ag1792
ag1793
ag1794
ag1795
ag1796
ag1797
ag1798
ag1799
ag1800
ag1801
ag1802
ag1803
ag1804
ag1805
ag1806
ag1807
ag1808
ag1809
ag1810
ag1811
ag1812
ag1813
ag1814
ag1815
ag1816
ag1817
ag1818
ag1819
ag1820
ag1821
ag1822
ag1823
ag1824
ag1825
ag1826
ag1827
ag1828
ag1829
ag1830
ag1831
ag1832
ag1833
ag1834
ag1835
ag1836
ag1837
ag1838
ag1839
ag1840
ag1841
ag1842
ag1843
ag1844
ag1845
ag1846
ag1847
ag1848
ag1849
ag1850
asg7
g4137
ssVb2210
p4140
(dp4141
g3
I0
sg4
(lp4142
VR_MDH2
p4143
aVR_MDH3
p4144
asg7
g4140
ssVb1602-b1603
p4145
(dp4146
g3
I0
sg4
(lp4147
g803
aVR_THD2pp
p4148
asg7
g4145
ssS'enzyme_221'
p4149
(dp4150
g3
I0
sg4
(lp4151
VR_EX_man_LPAREN_e_RPAREN_
p4152
asg7
g4149
ssVb3997
p4153
(dp4154
g3
I0
sg4
(lp4155
VR_UPPDC1
p4156
asg7
g4153
ssVb1857-b1859-b1858
p4157
(dp4158
g3
I0
sg4
(lp4159
VR_ZNabcpp
p4160
asg7
g4157
ssVb3991
p4161
(dp4162
g3
I0
sg4
(lp4163
VR_TYRL
p4164
asg7
g4161
ssS'enzyme_225'
p4165
(dp4166
g3
I0
sg4
(lp4167
VR_EX_meoh_LPAREN_e_RPAREN_
p4168
asg7
g4165
ssVb3993
p4169
(dp4170
g3
I0
sg4
(lp4171
VR_TMPPP
p4172
asg7
g4169
ssVb3857
p4173
(dp4174
g3
I0
sg4
(lp4175
g3000
ag3001
ag3002
ag3003
ag3004
asg7
g4173
ssVb3850
p4176
(dp4177
g3
I0
sg4
(lp4178
VR_PPPGO
p4179
aVR_PPPGO3
p4180
asg7
g4176
ssVb2585
p4181
(dp4182
g3
I0
sg4
(lp4183
VR_PSSA120
p4184
aVR_PSSA140
p4185
aVR_PSSA141
p4186
aVR_PSSA160
p4187
aVR_PSSA161
p4188
aVR_PSSA180
p4189
aVR_PSSA181
p4190
asg7
g4181
ssVb2587
p4191
(dp4192
g3
I0
sg4
(lp4193
VR_AKGt2rpp
p4194
asg7
g4191
ssVb2465
p4195
(dp4196
g3
I0
sg4
(lp4197
VR_TKT1
p4198
aVR_TKT2
p4199
asg7
g4195
ssVb2464
p4200
(dp4201
g3
I0
sg4
(lp4202
g2398
asg7
g4200
ssVb2103
p4203
(dp4204
g3
I0
sg4
(lp4205
g2884
aVR_PMPK
p4206
asg7
g4203
ssS'enzyme_238'
p4207
(dp4208
g3
I0
sg4
(lp4209
VR_EX_n2o_LPAREN_e_RPAREN_
p4210
asg7
g4207
ssS'enzyme_239'
p4211
(dp4212
g3
I0
sg4
(lp4213
VR_EX_na1_LPAREN_e_RPAREN_
p4214
asg7
g4211
ssS'enzyme_234'
p4215
(dp4216
g3
I0
sg4
(lp4217
VR_EX_mn2_LPAREN_e_RPAREN_
p4218
asg7
g4215
ssS'enzyme_235'
p4219
(dp4220
g3
I0
sg4
(lp4221
VR_EX_mnl_LPAREN_e_RPAREN_
p4222
asg7
g4219
ssS'enzyme_236'
p4223
(dp4224
g3
I0
sg4
(lp4225
VR_EX_mobd_LPAREN_e_RPAREN_
p4226
asg7
g4223
ssS'enzyme_237'
p4227
(dp4228
g3
I0
sg4
(lp4229
VR_EX_mso3_LPAREN_e_RPAREN_
p4230
asg7
g4227
ssS'enzyme_230'
p4231
(dp4232
g3
I0
sg4
(lp4233
VR_EX_mg2_LPAREN_e_RPAREN_
p4234
asg7
g4231
ssS'enzyme_231'
p4235
(dp4236
g3
I0
sg4
(lp4237
VR_EX_mincyc_LPAREN_e_RPAREN_
p4238
asg7
g4235
ssS'enzyme_232'
p4239
(dp4240
g3
I0
sg4
(lp4241
VR_EX_minohp_LPAREN_e_RPAREN_
p4242
asg7
g4239
ssS'enzyme_233'
p4243
(dp4244
g3
I0
sg4
(lp4245
VR_EX_mmet_LPAREN_e_RPAREN_
p4246
asg7
g4243
ssS'enzyme_99'
p4247
(dp4248
g3
I0
sg4
(lp4249
VR_EX_damp_LPAREN_e_RPAREN_
p4250
asg7
g4247
ssS'enzyme_98'
p4251
(dp4252
g3
I0
sg4
(lp4253
VR_EX_dad_DASH_2_LPAREN_e_RPAREN_
p4254
asg7
g4251
ssVb1805
p4255
(dp4256
g3
I0
sg4
(lp4257
VR_FACOAL100t2pp
p4258
aVR_FACOAL120t2pp
p4259
aVR_FACOAL140t2pp
p4260
aVR_FACOAL141t2pp
p4261
aVR_FACOAL160t2pp
p4262
aVR_FACOAL161t2pp
p4263
aVR_FACOAL180t2pp
p4264
aVR_FACOAL181t2pp
p4265
aVR_FACOAL60t2pp
p4266
aVR_FACOAL80t2pp
p4267
asg7
g4255
ssS'enzyme_91'
p4268
(dp4269
g3
I0
sg4
(lp4270
VR_EX_cu_LPAREN_e_RPAREN_
p4271
asg7
g4268
ssS'enzyme_90'
p4272
(dp4273
g3
I0
sg4
(lp4274
VR_EX_csn_LPAREN_e_RPAREN_
p4275
asg7
g4272
ssS'enzyme_93'
p4276
(dp4277
g3
I0
sg4
(lp4278
VR_EX_cyan_LPAREN_e_RPAREN_
p4279
asg7
g4276
ssS'enzyme_92'
p4280
(dp4281
g3
I0
sg4
(lp4282
VR_EX_cu2_LPAREN_e_RPAREN_
p4283
asg7
g4280
ssS'enzyme_95'
p4284
(dp4285
g3
I0
sg4
(lp4286
VR_EX_cys_DASH_D_LPAREN_e_RPAREN_
p4287
asg7
g4284
ssS'enzyme_94'
p4288
(dp4289
g3
I0
sg4
(lp4290
VR_EX_cynt_LPAREN_e_RPAREN_
p4291
asg7
g4288
ssS'enzyme_97'
p4292
(dp4293
g3
I0
sg4
(lp4294
VR_EX_cytd_LPAREN_e_RPAREN_
p4295
asg7
g4292
ssS'enzyme_96'
p4296
(dp4297
g3
I0
sg4
(lp4298
VR_EX_cys_DASH_L_LPAREN_e_RPAREN_
p4299
asg7
g4296
ssVb4213
p4300
(dp4301
g3
I0
sg4
(lp4302
VR_23PDE2pp
p4303
aVR_23PDE4pp
p4304
aVR_23PDE7pp
p4305
aVR_23PDE9pp
p4306
aVR_3NTD2pp
p4307
aVR_3NTD4pp
p4308
aVR_3NTD7pp
p4309
aVR_3NTD9pp
p4310
asg7
g4300
ssVb0778
p4311
(dp4312
g3
I0
sg4
(lp4313
VR_DBTS
p4314
asg7
g4311
ssVb4214
p4315
(dp4316
g3
I0
sg4
(lp4317
VR_BPNT
p4318
asg7
g4315
ssVb0775
p4319
(dp4320
g3
I0
sg4
(lp4321
VR_BTS5
p4322
asg7
g4319
ssVb0774
p4323
(dp4324
g3
I0
sg4
(lp4325
VR_AMAOTr
p4326
asg7
g4323
ssVb0777
p4327
(dp4328
g3
I0
sg4
(lp4329
VR_MALCOAMT
p4330
asg7
g4327
ssVb0776
p4331
(dp4332
g3
I0
sg4
(lp4333
VR_AOXSr2
p4334
asg7
g4331
ssVb1377
p4335
(dp4336
g3
I0
sg4
(lp4337
g1581
ag1582
ag1583
ag1584
ag1585
ag1586
ag1587
ag1588
ag1589
ag1590
ag1591
ag1592
ag1593
ag1594
ag1595
ag1596
ag1597
ag1598
ag1599
ag1600
ag1601
ag1602
ag1603
ag1604
ag1605
ag1606
ag1607
ag1608
ag1610
ag1611
ag1612
ag1613
ag1614
ag1615
ag1616
ag1617
ag1618
ag1619
ag1620
ag1621
ag1622
ag1623
ag1624
ag1625
ag1626
ag1627
ag1628
ag1629
ag1630
ag1631
ag1632
ag1633
ag1634
ag1635
ag1636
ag1637
ag1638
ag1639
ag1640
ag1641
ag1642
ag1643
ag1644
ag1645
ag1646
ag1647
ag1648
ag1649
ag1650
ag1651
ag1652
ag1653
ag1654
ag1655
ag1656
ag1657
ag1658
ag1659
ag1660
ag1661
ag1662
ag1663
ag1664
ag1665
ag1666
ag1667
ag1668
ag1669
ag1670
ag1671
ag1672
ag1673
ag1674
ag1675
ag1676
ag1677
ag1678
ag1679
ag1680
ag1681
ag1682
ag1683
ag1684
ag1685
ag1686
ag1687
ag1688
ag1689
ag1690
ag1691
ag1692
ag1693
ag1694
ag1695
ag1696
ag1697
ag1698
ag1699
ag1700
ag1701
ag1702
ag1703
ag1704
ag1705
ag1706
ag1707
ag1708
ag1709
ag1710
ag1711
ag1712
ag1713
ag1714
ag1715
ag1716
ag1717
ag1718
ag1719
ag1720
ag1721
ag1722
ag1723
ag1724
ag1725
ag557
ag1726
ag1727
ag1728
ag1729
ag1730
ag1731
ag1732
ag1733
ag1734
ag1735
ag1736
ag1737
ag1738
ag1739
ag1740
ag1741
ag1742
ag1743
ag1744
ag1745
ag1746
ag1747
ag1748
ag1749
ag1750
ag1751
ag1752
ag1753
ag1754
ag1755
ag1756
ag1757
ag1758
ag1759
ag1760
ag1761
ag1762
ag1763
ag1764
ag1765
ag1766
ag1767
ag1768
ag1769
ag1770
ag1771
ag1772
ag1773
ag1774
ag1775
ag1776
ag1777
ag1778
ag1779
ag1780
ag1781
ag1782
ag1783
ag1784
ag1785
ag1786
ag1787
ag1788
ag1789
ag1790
ag1791
ag1792
ag1793
ag1794
ag1795
ag1796
ag1797
ag1798
ag1799
ag1800
ag1801
ag1802
ag1803
ag1804
ag1805
ag1806
ag1807
ag1808
ag1809
ag1810
ag1811
ag1812
ag1813
ag1814
ag1815
ag1816
ag1817
ag1818
ag1819
ag1820
ag1821
ag1822
ag1823
ag1824
ag1825
ag1826
ag1827
ag1828
ag1829
ag1830
ag1831
ag1832
ag1833
ag1834
ag1835
ag1836
ag1837
ag1838
ag1839
ag1840
ag1841
ag1842
ag1843
ag1844
ag1845
ag1846
ag1847
ag1848
ag1849
ag1850
asg7
g4335
ssVb2310-b2307-b2306-b2308
p4338
(dp4339
g3
I0
sg4
(lp4340
g1106
aVR_LYSabcpp
p4341
aVR_ORNabcpp
p4342
asg7
g4338
ssVb2201-b2200-b2199-b2198-b2197
p4343
(dp4344
g3
I0
sg4
(lp4345
VR_PHEMEabcpp
p4346
asg7
g4343
ssVb0511
p4347
(dp4348
g3
I0
sg4
(lp4349
VR_ALLTNt2rpp
p4350
asg7
g4347
ssVb0512
p4351
(dp4352
g3
I0
sg4
(lp4353
VR_ALLTN
p4354
asg7
g4351
ssVb1465-b1466-b1467-b1468
p4355
(dp4356
g3
I0
sg4
(lp4357
VR_NO3R1pp
p4358
aVR_NO3R2pp
p4359
asg7
g4355
ssVb0514
p4360
(dp4361
g3
I0
sg4
(lp4362
VR_GLYCK
p4363
asg7
g4360
ssVb0517
p4364
(dp4365
g3
I0
sg4
(lp4366
VR_URDGLYCD
p4367
asg7
g4364
ssVb0516
p4368
(dp4369
g3
I0
sg4
(lp4370
VR_ALLTAMH
p4371
asg7
g4368
ssVb0688
p4372
(dp4373
g3
I0
sg4
(lp4374
VR_PGMT
p4375
asg7
g4372
ssVb1773
p4376
(dp4377
g3
I0
sg4
(lp4378
g2138
asg7
g4376
ssVb0680
p4379
(dp4380
g3
I0
sg4
(lp4381
VR_GLNTRS
p4382
asg7
g4379
ssVb1779
p4383
(dp4384
g3
I0
sg4
(lp4385
g94
aVR_GAPD
p4386
asg7
g4383
ssVb0179
p4387
(dp4388
g3
I0
sg4
(lp4389
VR_U23GAAT
p4390
asg7
g4387
ssVb0175
p4391
(dp4392
g3
I0
sg4
(lp4393
VR_DASYN120
p4394
aVR_DASYN140
p4395
aVR_DASYN141
p4396
aVR_DASYN160
p4397
aVR_DASYN161
p4398
aVR_DASYN180
p4399
aVR_DASYN181
p4400
asg7
g4391
ssVb0174
p4401
(dp4402
g3
I0
sg4
(lp4403
VR_UDCPDPS
p4404
asg7
g4401
ssVb0173
p4405
(dp4406
g3
I0
sg4
(lp4407
VR_DXPRIi
p4408
asg7
g4405
ssVb1489
p4409
(dp4410
g3
I0
sg4
(lp4411
VR_PDE1
p4412
aVR_PDE4
p4413
asg7
g4409
ssVb0171
p4414
(dp4415
g3
I0
sg4
(lp4416
VR_UMPK
p4417
asg7
g4414
ssVb0505
p4418
(dp4419
g3
I0
sg4
(lp4420
VR_UGLYCH
p4421
asg7
g4418
ssVb0425
p4422
(dp4423
g3
I0
sg4
(lp4424
VR_DPR
p4425
asg7
g4422
ssVb0356
p4426
(dp4427
g3
I0
sg4
(lp4428
VR_ALCD19
p4429
ag451
aVR_FALDH2
p4430
asg7
g4426
ssVb0355
p4431
(dp4432
g3
I0
sg4
(lp4433
g1259
asg7
g4431
ssVb0421
p4434
(dp4435
g3
I0
sg4
(lp4436
VR_DMATT
p4437
aVR_GRTT
p4438
asg7
g4434
ssVb0352
p4439
(dp4440
g3
I0
sg4
(lp4441
VR_HOPNTAL
p4442
asg7
g4439
ssVb0351
p4443
(dp4444
g3
I0
sg4
(lp4445
VR_ACALD
p4446
asg7
g4443
ssVb0350
p4447
(dp4448
g3
I0
sg4
(lp4449
VR_OP4ENH
p4450
asg7
g4447
ssVb3781-b0888
p4451
(dp4452
g3
I0
sg4
(lp4453
g755
asg7
g4451
ssVb0428
p4454
(dp4455
g3
I0
sg4
(lp4456
VR_HEMEOS
p4457
asg7
g4454
ssVb0194
p4458
(dp4459
g3
I0
sg4
(lp4460
VR_PROTRS
p4461
asg7
g4458
ssVb0592-b0588-b0590-b0589
p4462
(dp4463
g3
I0
sg4
(lp4464
VR_FE3DHBZSabcpp
p4465
aVR_FEENTERabcpp
p4466
asg7
g4462
ssVb2415-b2416-b2702-b2704-b2703
p4467
(dp4468
g3
I0
sg4
(lp4469
VR_SBTptspp
p4470
asg7
g4467
ssVb0957
p4471
(dp4472
g3
I0
sg4
(lp4473
g557
asg7
g4471
ssVb2309-b2307-b2306-b2308
p4474
(dp4475
g3
I0
sg4
(lp4476
VR_HISabcpp
p4477
asg7
g4474
ssVb2661
p4478
(dp4479
g3
I0
sg4
(lp4480
g1541
asg7
g4478
ssVb2762-b1064
p4481
(dp4482
g3
I0
sg4
(lp4483
g659
asg7
g4481
ssVb0222
p4484
(dp4485
g3
I0
sg4
(lp4486
VR_S7PI
p4487
asg7
g4484
ssVb0221
p4488
(dp4489
g3
I0
sg4
(lp4490
VR_ACOAD1f
p4491
aVR_ACOAD2f
p4492
aVR_ACOAD3f
p4493
aVR_ACOAD4f
p4494
aVR_ACOAD5f
p4495
aVR_ACOAD6f
p4496
aVR_ACOAD7f
p4497
aVR_ACOAD8f
p4498
asg7
g4488
ssVb2095-b2096
p4499
(dp4500
g3
I0
sg4
(lp4501
VR_TGBPA
p4502
asg7
g4499
ssVb0198-b0199-b0197
p4503
(dp4504
g3
I0
sg4
(lp4505
VR_METDabcpp
p4506
aVR_METabcpp
p4507
asg7
g4503
ssVb0767
p4508
(dp4509
g3
I0
sg4
(lp4510
VR_PGL
p4511
asg7
g4508
ssVb1587-b1588-b1589-b1590
p4512
(dp4513
g3
I0
sg4
(lp4514
VR_DMSOR1
p4515
aVR_SELR
p4516
aVR_TMAOR1
p4517
asg7
g4512
ssS'enzyme_51'
p4518
(dp4519
g3
I0
sg4
(lp4520
VR_EX_ala_DASH_B_LPAREN_e_RPAREN_
p4521
asg7
g4518
ssS'enzyme_172'
p4522
(dp4523
g3
I0
sg4
(lp4524
VR_EX_glyc_DASH_R_LPAREN_e_RPAREN_
p4525
asg7
g4522
ssVb3198
p4526
(dp4527
g3
I0
sg4
(lp4528
VR_KDOPP
p4529
asg7
g4526
ssVb3628
p4530
(dp4531
g3
I0
sg4
(lp4532
VR_GALT1
p4533
asg7
g4530
ssVb3629
p4534
(dp4535
g3
I0
sg4
(lp4536
VR_RHAT1
p4537
asg7
g4534
ssVb3626
p4538
(dp4539
g3
I0
sg4
(lp4540
VR_GLCTR3
p4541
asg7
g4538
ssVb3627
p4542
(dp4543
g3
I0
sg4
(lp4544
VR_GLCTR2
p4545
asg7
g4542
ssVb3196
p4546
(dp4547
g3
I0
sg4
(lp4548
VR_CAt6pp
p4549
asg7
g4546
ssVb3197
p4550
(dp4551
g3
I0
sg4
(lp4552
VR_A5PISO
p4553
asg7
g4550
ssVb3622
p4554
(dp4555
g3
I0
sg4
(lp4556
VR_ECA4OALpp
p4557
aVR_O16A4Lpp
p4558
asg7
g4554
ssVb3623
p4559
(dp4560
g3
I0
sg4
(lp4561
VR_HEPT4
p4562
asg7
g4559
ssVb3620
p4563
(dp4564
g3
I0
sg4
(lp4565
VR_HEPT2
p4566
asg7
g4563
ssVb3621
p4567
(dp4568
g3
I0
sg4
(lp4569
VR_HEPT1
p4570
asg7
g4567
ssS'enzyme_359'
p4571
(dp4572
g3
I0
sg4
(lp4573
VR_BTNt2ipp
p4574
asg7
g4571
ssS'enzyme_358'
p4575
(dp4576
g3
I0
sg4
(lp4577
VR_ATPM
p4578
asg7
g4575
ssS'enzyme_353'
p4579
(dp4580
g3
I0
sg4
(lp4581
VR_ARBTNtex
p4582
asg7
g4579
ssS'enzyme_352'
p4583
(dp4584
g3
I0
sg4
(lp4585
VR_ARBTNR3
p4586
asg7
g4583
ssS'enzyme_351'
p4587
(dp4588
g3
I0
sg4
(lp4589
VR_ARBTNR2
p4590
asg7
g4587
ssS'enzyme_350'
p4591
(dp4592
g3
I0
sg4
(lp4593
VR_ARBTNR1
p4594
asg7
g4591
ssS'enzyme_357'
p4595
(dp4596
g3
I0
sg4
(lp4597
VR_ASPt2rpp
p4598
asg7
g4595
ssS'enzyme_356'
p4599
(dp4600
g3
I0
sg4
(lp4601
VR_ASNabcpp
p4602
asg7
g4599
ssS'enzyme_355'
p4603
(dp4604
g3
I0
sg4
(lp4605
VR_ARBTNtpp
p4606
asg7
g4603
ssS'enzyme_354'
p4607
(dp4608
g3
I0
sg4
(lp4609
VR_ARBTNtonex
p4610
asg7
g4607
ssVb1487-b1486-b1485-b1484-b1483
p4611
(dp4612
g3
I0
sg4
(lp4613
g142
asg7
g4611
ssVb1778-b2582
p4614
(dp4615
g3
I0
sg4
(lp4616
g2494
asg7
g4614
ssVb3551
p4617
(dp4618
g3
I0
sg4
(lp4619
VR_BSORx
p4620
aVR_BSORy
p4621
asg7
g4617
ssS'enzyme_64'
p4622
(dp4623
g3
I0
sg4
(lp4624
VR_EX_ascb_DASH_L_LPAREN_e_RPAREN_
p4625
asg7
g4622
ssS'enzyme_65'
p4626
(dp4627
g3
I0
sg4
(lp4628
VR_EX_asn_DASH_L_LPAREN_e_RPAREN_
p4629
asg7
g4626
ssS'enzyme_66'
p4630
(dp4631
g3
I0
sg4
(lp4632
VR_EX_aso3_LPAREN_e_RPAREN_
p4633
asg7
g4630
ssS'enzyme_67'
p4634
(dp4635
g3
I0
sg4
(lp4636
VR_EX_asp_DASH_L_LPAREN_e_RPAREN_
p4637
asg7
g4634
ssS'enzyme_60'
p4638
(dp4639
g3
I0
sg4
(lp4640
VR_EX_arbt_LPAREN_e_RPAREN_
p4641
asg7
g4638
ssS'enzyme_61'
p4642
(dp4643
g3
I0
sg4
(lp4644
VR_EX_arbtn_LPAREN_e_RPAREN_
p4645
asg7
g4642
ssS'enzyme_62'
p4646
(dp4647
g3
I0
sg4
(lp4648
VR_EX_arbtn_DASH_fe3_LPAREN_e_RPAREN_
p4649
asg7
g4646
ssS'enzyme_63'
p4650
(dp4651
g3
I0
sg4
(lp4652
VR_EX_arg_DASH_L_LPAREN_e_RPAREN_
p4653
asg7
g4650
ssVb2917
p4654
(dp4655
g3
I0
sg4
(lp4656
VR_MMM
p4657
asg7
g4654
ssS'enzyme_376'
p4658
(dp4659
g3
I0
sg4
(lp4660
VR_CYSabcpp
p4661
asg7
g4658
ssS'enzyme_68'
p4662
(dp4663
g3
I0
sg4
(lp4664
VR_EX_btn_LPAREN_e_RPAREN_
p4665
asg7
g4662
ssS'enzyme_69'
p4666
(dp4667
g3
I0
sg4
(lp4668
VR_EX_but_LPAREN_e_RPAREN_
p4669
asg7
g4666
ssVb2663
p4670
(dp4671
g3
I0
sg4
(lp4672
VR_ABUTt2pp
p4673
asg7
g4670
ssVb2662
p4674
(dp4675
g3
I0
sg4
(lp4676
g2840
asg7
g4674
ssVb1263
p4677
(dp4678
g3
I0
sg4
(lp4679
VR_ANPRT
p4680
asg7
g4677
ssVb2261
p4681
(dp4682
g3
I0
sg4
(lp4683
VR_SUCBZS
p4684
asg7
g4681
ssVb2260
p4685
(dp4686
g3
I0
sg4
(lp4687
VR_SUCBZL
p4688
asg7
g4685
ssVb2263
p4689
(dp4690
g3
I0
sg4
(lp4691
VR_SHCHCS3
p4692
asg7
g4689
ssVb2262
p4693
(dp4694
g3
I0
sg4
(lp4695
VR_DHNCOAS
p4696
asg7
g4693
ssVb2265
p4697
(dp4698
g3
I0
sg4
(lp4699
VR_ICHORS
p4700
asg7
g4697
ssVb4244-b4245
p4701
(dp4702
g3
I0
sg4
(lp4703
g1482
asg7
g4701
ssVb0365-b0366-b0367
p4704
(dp4705
g3
I0
sg4
(lp4706
g1304
ag1306
aVR_TAURabcpp
p4707
asg7
g4704
ssVb0463-b2470-b3035
p4708
(dp4709
g3
I0
sg4
(lp4710
VR_CMtpp
p4711
aVR_DOXRBCNtpp
p4712
aVR_FUSAtpp
p4713
aVR_MINCYCtpp
p4714
aVR_NOVBCNtpp
p4715
aVR_RFAMPtpp
p4716
aVR_TTRCYCtpp
p4717
asg7
g4708
ssVb2687
p4718
(dp4719
g3
I0
sg4
(lp4720
VR_RHCCE
p4721
asg7
g4718
ssVb2690
p4722
(dp4723
g3
I0
sg4
(lp4724
g4375
asg7
g4722
ssS'enzyme_198'
p4725
(dp4726
g3
I0
sg4
(lp4727
VR_EX_imp_LPAREN_e_RPAREN_
p4728
asg7
g4725
ssVb3846
p4729
(dp4730
g3
I0
sg4
(lp4731
VR_CTECOAI6
p4732
aVR_CTECOAI7
p4733
aVR_CTECOAI8
p4734
ag594
ag595
ag596
ag597
ag598
ag599
ag600
ag601
ag602
ag603
ag604
ag605
ag606
ag607
ag608
ag609
asg7
g4729
ssVb3844
p4735
(dp4736
g3
I0
sg4
(lp4737
VR_FADRx
p4738
aVR_FE3Ri
p4739
aVR_FLVR
p4740
aVR_FLVRx
p4741
ag1045
ag1046
asg7
g4735
ssVb3845
p4742
(dp4743
g3
I0
sg4
(lp4744
g723
ag724
ag725
ag726
ag727
ag728
ag729
ag730
asg7
g4742
ssVb2935
p4745
(dp4746
g3
I0
sg4
(lp4747
g4198
ag4199
asg7
g4745
ssS'enzyme_48'
p4748
(dp4749
g3
I0
sg4
(lp4750
VR_EX_ag_LPAREN_e_RPAREN_
p4751
asg7
g4748
ssS'enzyme_223'
p4752
(dp4753
g3
I0
sg4
(lp4754
VR_EX_manglyc_LPAREN_e_RPAREN_
p4755
asg7
g4752
ssS'enzyme_222'
p4756
(dp4757
g3
I0
sg4
(lp4758
VR_EX_man6p_LPAREN_e_RPAREN_
p4759
asg7
g4756
ssVb3996
p4760
(dp4761
g3
I0
sg4
(lp4762
g2053
asg7
g4760
ssS'enzyme_220'
p4763
(dp4764
g3
I0
sg4
(lp4765
VR_EX_maltttr_LPAREN_e_RPAREN_
p4766
asg7
g4763
ssS'enzyme_227'
p4767
(dp4768
g3
I0
sg4
(lp4769
VR_EX_met_DASH_L_LPAREN_e_RPAREN_
p4770
asg7
g4767
ssS'enzyme_226'
p4771
(dp4772
g3
I0
sg4
(lp4773
VR_EX_met_DASH_D_LPAREN_e_RPAREN_
p4774
asg7
g4771
ssVb3360-b1812
p4775
(dp4776
g3
I0
sg4
(lp4777
VR_ADCS
p4778
asg7
g4775
ssS'enzyme_224'
p4779
(dp4780
g3
I0
sg4
(lp4781
VR_EX_melib_LPAREN_e_RPAREN_
p4782
asg7
g4779
ssVb2467
p4783
(dp4784
g3
I0
sg4
(lp4785
VR_GDPMNP
p4786
asg7
g4783
ssS'enzyme_229'
p4787
(dp4788
g3
I0
sg4
(lp4789
VR_EX_metsox_DASH_S_DASH_L_LPAREN_e_RPAREN_
p4790
asg7
g4787
ssS'enzyme_228'
p4791
(dp4792
g3
I0
sg4
(lp4793
VR_EX_metsox_DASH_R_DASH_L_LPAREN_e_RPAREN_
p4794
asg7
g4791
ssVb2463
p4795
(dp4796
g3
I0
sg4
(lp4797
VR_ME2
p4798
asg7
g4795
ssVb3426
p4799
(dp4800
g3
I0
sg4
(lp4801
VR_G3PD5
p4802
asg7
g4799
ssS'enzyme_192'
p4803
(dp4804
g3
I0
sg4
(lp4805
VR_EX_his_DASH_L_LPAREN_e_RPAREN_
p4806
asg7
g4803
ssS'enzyme_195'
p4807
(dp4808
g3
I0
sg4
(lp4809
VR_EX_hxan_LPAREN_e_RPAREN_
p4810
asg7
g4807
ssVb2291
p4811
(dp4812
g3
I0
sg4
(lp4813
VR_NTD1
p4814
aVR_NTD12
p4815
aVR_NTD3
p4816
aVR_NTD5
p4817
aVR_NTD6
p4818
aVR_NTD8
p4819
asg7
g4811
ssVb3951-b3952
p4820
(dp4821
g3
I0
sg4
(lp4822
g1909
asg7
g4820
ssS'enzyme_197'
p4823
(dp4824
g3
I0
sg4
(lp4825
VR_EX_ile_DASH_L_LPAREN_e_RPAREN_
p4826
asg7
g4823
ssVb2688
p4827
(dp4828
g3
I0
sg4
(lp4829
VR_GLUCYS
p4830
asg7
g4827
ssS'enzyme_88'
p4831
(dp4832
g3
I0
sg4
(lp4833
VR_EX_crn_LPAREN_e_RPAREN_
p4834
asg7
g4831
ssS'enzyme_89'
p4835
(dp4836
g3
I0
sg4
(lp4837
VR_EX_crn_DASH_D_LPAREN_e_RPAREN_
p4838
asg7
g4835
ssS'enzyme_82'
p4839
(dp4840
g3
I0
sg4
(lp4841
VR_EX_co2_LPAREN_e_RPAREN_
p4842
asg7
g4839
ssS'enzyme_83'
p4843
(dp4844
g3
I0
sg4
(lp4845
VR_EX_cobalt2_LPAREN_e_RPAREN_
p4846
asg7
g4843
ssS'enzyme_80'
p4847
(dp4848
g3
I0
sg4
(lp4849
VR_EX_cm_LPAREN_e_RPAREN_
p4850
asg7
g4847
ssS'enzyme_81'
p4851
(dp4852
g3
I0
sg4
(lp4853
VR_EX_cmp_LPAREN_e_RPAREN_
p4854
asg7
g4851
ssS'enzyme_86'
p4855
(dp4856
g3
I0
sg4
(lp4857
VR_EX_cpgn_LPAREN_e_RPAREN_
p4858
asg7
g4855
ssS'enzyme_87'
p4859
(dp4860
g3
I0
sg4
(lp4861
VR_EX_cpgn_DASH_un_LPAREN_e_RPAREN_
p4862
asg7
g4859
ssS'enzyme_84'
p4863
(dp4864
g3
I0
sg4
(lp4865
VR_EX_colipa_LPAREN_e_RPAREN_
p4866
asg7
g4863
ssS'enzyme_85'
p4867
(dp4868
g3
I0
sg4
(lp4869
VR_EX_colipap_LPAREN_e_RPAREN_
p4870
asg7
g4867
ssVb1015
p4871
(dp4872
g3
I0
sg4
(lp4873
VR_PPAt4pp
p4874
aVR_PROt4pp
p4875
asg7
g4871
ssVb1014
p4876
(dp4877
g3
I0
sg4
(lp4878
VR_P5CD
p4879
aVR_PROD2
p4880
asg7
g4876
ssVb1011
p4881
(dp4882
g3
I0
sg4
(lp4883
VR_URACPAH
p4884
asg7
g4881
ssVb1010
p4885
(dp4886
g3
I0
sg4
(lp4887
VR_POAACR
p4888
asg7
g4885
ssS'enzyme_190'
p4889
(dp4890
g3
I0
sg4
(lp4891
VR_EX_hdcea_LPAREN_e_RPAREN_
p4892
asg7
g4889
ssVb0766
p4893
(dp4894
g3
I0
sg4
(lp4895
VR_PDXPP
p4896
ag1521
asg7
g4893
ssVb4226
p4897
(dp4898
g3
I0
sg4
(lp4899
g832
asg7
g4897
ssS'enzyme_193'
p4900
(dp4901
g3
I0
sg4
(lp4902
VR_EX_hom_DASH_L_LPAREN_e_RPAREN_
p4903
asg7
g4900
ssVb2094-b2093-b2092-b2415-b2416
p4904
(dp4905
g3
I0
sg4
(lp4906
VR_GALTptspp
p4907
asg7
g4904
ssVb1640
p4908
(dp4909
g3
I0
sg4
(lp4910
VR_ANHMK
p4911
asg7
g4908
ssVb1907
p4912
(dp4913
g3
I0
sg4
(lp4914
g461
asg7
g4912
ssVb0508
p4915
(dp4916
g3
I0
sg4
(lp4917
VR_HPYRI
p4918
asg7
g4915
ssVb0509
p4919
(dp4920
g3
I0
sg4
(lp4921
VR_TRSARr
p4922
asg7
g4919
ssVb1584
p4923
(dp4924
g3
I0
sg4
(lp4925
VR_SPMDAT1
p4926
aVR_SPMDAT2
p4927
asg7
g4923
ssVb1679-b1680
p4928
(dp4929
g3
I0
sg4
(lp4930
VR_SCYSDS
p4931
asg7
g4928
ssVb0507
p4932
(dp4933
g3
I0
sg4
(lp4934
VR_GLXCL
p4935
asg7
g4932
ssVb4085
p4936
(dp4937
g3
I0
sg4
(lp4938
VR_ALLULPE
p4939
asg7
g4936
ssVb4084
p4940
(dp4941
g3
I0
sg4
(lp4942
VR_ALLK
p4943
asg7
g4940
ssVb1740
p4944
(dp4945
g3
I0
sg4
(lp4946
VR_NADS1
p4947
asg7
g4944
ssVb1747
p4948
(dp4949
g3
I0
sg4
(lp4950
VR_AST
p4951
asg7
g4948
ssVb1746
p4952
(dp4953
g3
I0
sg4
(lp4954
VR_SGSAD
p4955
asg7
g4952
ssVb1745
p4956
(dp4957
g3
I0
sg4
(lp4958
VR_SADH
p4959
asg7
g4956
ssVb1744
p4960
(dp4961
g3
I0
sg4
(lp4962
VR_SGDS
p4963
asg7
g4960
ssVb0692
p4964
(dp4965
g3
I0
sg4
(lp4966
VR_PTRCORNt7pp
p4967
aVR_PTRCt2pp
p4968
asg7
g4964
ssVb0693
p4969
(dp4970
g3
I0
sg4
(lp4971
g2107
asg7
g4969
ssVb1748
p4972
(dp4973
g3
I0
sg4
(lp4974
g81
aVR_SOTA
p4975
asg7
g4972
ssVb3452-b3453-b3450-b3451
p4976
(dp4977
g3
I0
sg4
(lp4978
VR_G3PCabcpp
p4979
aVR_G3PEabcpp
p4980
aVR_G3PGabcpp
p4981
aVR_G3PIabcpp
p4982
aVR_G3PSabcpp
p4983
aVR_GLYC2Pabcpp
p4984
aVR_GLYC3Pabcpp
p4985
asg7
g4976
ssVb2836-b1094
p4986
(dp4987
g3
I0
sg4
(lp4988
VR_AACPS1
p4989
aVR_AACPS2
p4990
aVR_AACPS3
p4991
aVR_AACPS4
p4992
aVR_AACPS5
p4993
aVR_AACPS6
p4994
aVR_AACPS7
p4995
aVR_AACPS8
p4996
aVR_AACPS9
p4997
asg7
g4986
ssVb0980
p4998
(dp4999
g3
I0
sg4
(lp5000
VR_NTP3pp
p5001
aVR_PHYTSpp
p5002
asg7
g4998
ssVb0160
p5003
(dp5004
g3
I0
sg4
(lp5005
VR_NTPTP1
p5006
aVR_NTPTP2
p5007
asg7
g5003
ssS'enzyme_194'
p5008
(dp5009
g3
I0
sg4
(lp5010
VR_EX_hxa_LPAREN_e_RPAREN_
p5011
asg7
g5008
ssVb0166
p5012
(dp5013
g3
I0
sg4
(lp5014
VR_THDPS
p5015
asg7
g5012
ssVb0340
p5016
(dp5017
g3
I0
sg4
(lp5018
VR_CYNTAH
p5019
asg7
g5016
ssVb0341
p5020
(dp5021
g3
I0
sg4
(lp5022
VR_CYNTt2pp
p5023
asg7
g5020
ssVb0343
p5024
(dp5025
g3
I0
sg4
(lp5026
VR_LCTStpp
p5027
asg7
g5024
ssVb0344
p5028
(dp5029
g3
I0
sg4
(lp5030
VR_LACZ
p5031
asg7
g5028
ssVb0433
p5032
(dp5033
g3
I0
sg4
(lp5034
VR_AGM3Pt2pp
p5035
aVR_AGM4Pt2pp
p5036
aVR_AGMt2pp
p5037
asg7
g5032
ssVb0347
p5038
(dp5039
g3
I0
sg4
(lp5040
VR_3HCINNMH
p5041
aVR_3HPPPNH
p5042
asg7
g5038
ssVb0348
p5043
(dp5044
g3
I0
sg4
(lp5045
VR_DHCINDO
p5046
aVR_HPPPNDO
p5047
asg7
g5043
ssVb0349
p5048
(dp5049
g3
I0
sg4
(lp5050
VR_HKNDDH
p5051
aVR_HKNTDH
p5052
asg7
g5048
ssVb0186
p5053
(dp5054
g3
I0
sg4
(lp5055
g426
asg7
g5053
ssVb0182
p5056
(dp5057
g3
I0
sg4
(lp5058
VR_LPADSS
p5059
asg7
g5056
ssVb0180
p5060
(dp5061
g3
I0
sg4
(lp5062
g2437
ag2438
ag2439
ag2440
ag2441
ag2442
ag2443
ag2444
ag2445
ag2446
ag2447
ag2448
aVR_OGMEACPD
p5063
aVR_OPMEACPD
p5064
asg7
g5060
ssS'enzyme_433'
p5065
(dp5066
g3
I0
sg4
(lp5067
VR_O16GLCT2
p5068
asg7
g5065
ssS'enzyme_196'
p5069
(dp5070
g3
I0
sg4
(lp5071
VR_EX_idon_DASH_L_LPAREN_e_RPAREN_
p5072
asg7
g5069
ssVb3843-b2311
p5073
(dp5074
g3
I0
sg4
(lp5075
VR_OPHBDC
p5076
asg7
g5073
ssVb0238
p5077
(dp5078
g3
I0
sg4
(lp5079
g2984
ag2985
aVR_XPPT
p5080
asg7
g5077
ssVb0237
p5081
(dp5082
g3
I0
sg4
(lp5083
g1032
ag1033
aVR_LALGP
p5084
asg7
g5081
ssS'enzyme_456'
p5085
(dp5086
g3
I0
sg4
(lp5087
VR_URIC
p5088
asg7
g5085
ssS'enzyme_457'
p5089
(dp5090
g3
I0
sg4
(lp5091
VR_XANtpp
p5092
asg7
g5089
ssS'enzyme_450'
p5093
(dp5094
g3
I0
sg4
(lp5095
VR_SELGTHR2
p5096
asg7
g5093
ssS'enzyme_396'
p5097
(dp5098
g3
I0
sg4
(lp5099
VR_FEENTERR2
p5100
asg7
g5097
ssVb2715-b2415-b2416
p5101
(dp5102
g3
I0
sg4
(lp5103
VR_ARBTptspp
p5104
asg7
g5101
ssVb2530-b0784
p5105
(dp5106
g3
I0
sg4
(lp5107
VR_MOADSUx
p5108
asg7
g5105
ssVb3619
p5109
(dp5110
g3
I0
sg4
(lp5111
VR_AGMHE
p5112
asg7
g5109
ssVb3612
p5113
(dp5114
g3
I0
sg4
(lp5115
VR_PGM
p5116
asg7
g5113
ssVb3610
p5117
(dp5118
g3
I0
sg4
(lp5119
g396
asg7
g5117
ssVb3617
p5120
(dp5121
g3
I0
sg4
(lp5122
VR_GLYAT
p5123
asg7
g5120
ssVb3616
p5124
(dp5125
g3
I0
sg4
(lp5126
VR_THRD
p5127
asg7
g5124
ssS'enzyme_328'
p5128
(dp5129
g3
I0
sg4
(lp5130
VR_EX_xylu_DASH_L_LPAREN_e_RPAREN_
p5131
asg7
g5128
ssS'enzyme_329'
p5132
(dp5133
g3
I0
sg4
(lp5134
VR_EX_zn2_LPAREN_e_RPAREN_
p5135
asg7
g5132
ssS'enzyme_326'
p5136
(dp5137
g3
I0
sg4
(lp5138
VR_EX_xtsn_LPAREN_e_RPAREN_
p5139
asg7
g5136
ssS'enzyme_327'
p5140
(dp5141
g3
I0
sg4
(lp5142
VR_EX_xyl_DASH_D_LPAREN_e_RPAREN_
p5143
asg7
g5140
ssS'enzyme_324'
p5144
(dp5145
g3
I0
sg4
(lp5146
VR_EX_xan_LPAREN_e_RPAREN_
p5147
asg7
g5144
ssS'enzyme_325'
p5148
(dp5149
g3
I0
sg4
(lp5150
VR_EX_xmp_LPAREN_e_RPAREN_
p5151
asg7
g5148
ssS'enzyme_322'
p5152
(dp5153
g3
I0
sg4
(lp5154
VR_EX_uri_LPAREN_e_RPAREN_
p5155
asg7
g5152
ssS'enzyme_323'
p5156
(dp5157
g3
I0
sg4
(lp5158
VR_EX_val_DASH_L_LPAREN_e_RPAREN_
p5159
asg7
g5156
ssS'enzyme_320'
p5160
(dp5161
g3
I0
sg4
(lp5162
VR_EX_ura_LPAREN_e_RPAREN_
p5163
asg7
g5160
ssS'enzyme_321'
p5164
(dp5165
g3
I0
sg4
(lp5166
VR_EX_urea_LPAREN_e_RPAREN_
p5167
asg7
g5164
ssVb0052-b2564
p5168
(dp5169
g3
I0
sg4
(lp5170
VR_PDX5PS
p5171
asg7
g5168
ssVb3058
p5172
(dp5173
g3
I0
sg4
(lp5174
VR_DHNPA2r
p5175
aVR_DHNPTE
p5176
asg7
g5172
ssVb3057
p5177
(dp5178
g3
I0
sg4
(lp5179
g370
ag371
asg7
g5177
ssVb3502
p5180
(dp5181
g3
I0
sg4
(lp5182
VR_ASO3t8pp
p5183
asg7
g5180
ssVb3500
p5184
(dp5185
g3
I0
sg4
(lp5186
VR_GTHOr
p5187
asg7
g5184
ssVb2901
p5188
(dp5189
g3
I0
sg4
(lp5190
VR_AB6PGH
p5191
asg7
g5188
ssVb2907
p5192
(dp5193
g3
I0
sg4
(lp5194
VR_OMPHHX
p5195
asg7
g5192
ssVb1102-b1252-b3005-b3006
p5196
(dp5197
g3
I0
sg4
(lp5198
VR_CPGNtonex
p5199
asg7
g5196
ssVb2874
p5200
(dp5201
g3
I0
sg4
(lp5202
g1862
asg7
g5200
ssVb2877
p5203
(dp5204
g3
I0
sg4
(lp5205
VR_MOCDS
p5206
asg7
g5203
ssVb2871
p5207
(dp5208
g3
I0
sg4
(lp5209
VR_DAPAL
p5210
asg7
g5207
ssVb2010
p5211
(dp5212
g3
I0
sg4
(lp5213
g2832
ag2833
ag2834
ag2835
ag2836
asg7
g5211
ssVb3870
p5214
(dp5215
g3
I0
sg4
(lp5216
VR_GLNS
p5217
asg7
g5214
ssVb3875
p5218
(dp5219
g3
I0
sg4
(lp5220
g557
asg7
g5218
ssVb2478
p5221
(dp5222
g3
I0
sg4
(lp5223
VR_DHDPS
p5224
asg7
g5221
ssVb0902-b0903-b2579
p5225
(dp5226
g3
I0
sg4
(lp5227
g1908
ag1909
asg7
g5225
ssS'enzyme_254'
p5228
(dp5229
g3
I0
sg4
(lp5230
VR_EX_orn_LPAREN_e_RPAREN_
p5231
asg7
g5228
ssS'enzyme_255'
p5232
(dp5233
g3
I0
sg4
(lp5234
VR_EX_orot_LPAREN_e_RPAREN_
p5235
asg7
g5232
ssS'enzyme_252'
p5236
(dp5237
g3
I0
sg4
(lp5238
VR_EX_ocdcea_LPAREN_e_RPAREN_
p5239
asg7
g5236
ssS'enzyme_253'
p5240
(dp5241
g3
I0
sg4
(lp5242
VR_EX_octa_LPAREN_e_RPAREN_
p5243
asg7
g5240
ssS'enzyme_250'
p5244
(dp5245
g3
I0
sg4
(lp5246
VR_EX_o2s_LPAREN_e_RPAREN_
p5247
asg7
g5244
ssS'enzyme_251'
p5248
(dp5249
g3
I0
sg4
(lp5250
VR_EX_ocdca_LPAREN_e_RPAREN_
p5251
asg7
g5248
ssVb2683-b2682
p5252
(dp5253
g3
I0
sg4
(lp5254
VR_VALt2rpp
p5255
asg7
g5252
ssVb2472
p5256
(dp5257
g3
I0
sg4
(lp5258
VR_SDPDS
p5259
asg7
g5256
ssVb2476
p5260
(dp5261
g3
I0
sg4
(lp5262
VR_PRASCSi
p5263
asg7
g5260
ssS'enzyme_259'
p5264
(dp5265
g3
I0
sg4
(lp5266
VR_EX_pheme_LPAREN_e_RPAREN_
p5267
asg7
g5264
ssVb2705
p5268
(dp5269
g3
I0
sg4
(lp5270
VR_SBTPD
p5271
asg7
g5268
ssVb2701
p5272
(dp5273
g3
I0
sg4
(lp5274
g2115
ag2116
ag2117
ag2118
asg7
g5272
ssVb2708
p5275
(dp5276
g3
I0
sg4
(lp5277
g4553
asg7
g5275
ssVb2497
p5278
(dp5279
g3
I0
sg4
(lp5280
VR_URAt2pp
p5281
asg7
g5278
ssVb2492
p5282
(dp5283
g3
I0
sg4
(lp5284
g520
ag521
asg7
g5282
ssVb2498
p5285
(dp5286
g3
I0
sg4
(lp5287
VR_UPPRT
p5288
asg7
g5285
ssVb2499
p5289
(dp5290
g3
I0
sg4
(lp5291
VR_PRAIS
p5292
asg7
g5289
ssVb1008
p5293
(dp5294
g3
I0
sg4
(lp5295
g2405
asg7
g5293
ssVb1009
p5296
(dp5297
g3
I0
sg4
(lp5298
VR_3AMACHYD
p5299
asg7
g5296
ssVb1002
p5300
(dp5301
g3
I0
sg4
(lp5302
VR_G1PPpp
p5303
aVR_GAL1PPpp
p5304
asg7
g5300
ssVb1006
p5305
(dp5306
g3
I0
sg4
(lp5307
VR_URAt2rpp
p5308
asg7
g5305
ssVb4239
p5309
(dp5310
g3
I0
sg4
(lp5311
VR_TRE6PH
p5312
asg7
g5309
ssVb0759
p5313
(dp5314
g3
I0
sg4
(lp5315
VR_UDPG4E
p5316
asg7
g5313
ssVb0758
p5317
(dp5318
g3
I0
sg4
(lp5319
VR_UGLT
p5320
asg7
g5317
ssVb0150-b1252-b3005-b3006
p5321
(dp5322
g3
I0
sg4
(lp5323
VR_FE3HOXtonex
p5324
aVR_FECRMtonex
p5325
aVR_FEOXAMtonex
p5326
asg7
g5321
ssVb0752
p5327
(dp5328
g3
I0
sg4
(lp5329
g235
ag236
ag239
ag240
ag241
asg7
g5327
ssVb4232
p5330
(dp5331
g3
I0
sg4
(lp5332
g3646
asg7
g5330
ssVb0750
p5333
(dp5334
g3
I0
sg4
(lp5335
VR_QULNS
p5336
asg7
g5333
ssVb0757
p5337
(dp5338
g3
I0
sg4
(lp5339
g2761
asg7
g5337
ssVb0756
p5340
(dp5341
g3
I0
sg4
(lp5342
VR_GALM2pp
p5343
asg7
g5340
ssVb0755
p5344
(dp5345
g3
I0
sg4
(lp5346
g5116
asg7
g5344
ssVb0754
p5347
(dp5348
g3
I0
sg4
(lp5349
g200
asg7
g5347
ssS'enzyme_404'
p5350
(dp5351
g3
I0
sg4
(lp5352
VR_GUACYC
p5353
asg7
g5350
ssS'enzyme_202'
p5354
(dp5355
g3
I0
sg4
(lp5356
VR_EX_isetac_LPAREN_e_RPAREN_
p5357
asg7
g5354
ssVb1919
p5358
(dp5359
g3
I0
sg4
(lp5360
VR_CYSDDS
p5361
asg7
g5358
ssVb1912
p5362
(dp5363
g3
I0
sg4
(lp5364
VR_PGSA120
p5365
aVR_PGSA140
p5366
aVR_PGSA141
p5367
aVR_PGSA160
p5368
aVR_PGSA161
p5369
aVR_PGSA180
p5370
aVR_PGSA181
p5371
asg7
g5362
ssVb1592
p5372
(dp5373
g3
I0
sg4
(lp5374
g3457
asg7
g5372
ssVb1759
p5375
(dp5376
g3
I0
sg4
(lp5377
g2207
ag2208
asg7
g5375
ssVb0584-b1252-b3005-b3006
p5378
(dp5379
g3
I0
sg4
(lp5380
VR_FEENTERtonex
p5381
asg7
g5378
ssVb3670-b3671
p5382
(dp5383
g3
I0
sg4
(lp5384
g1136
ag1137
asg7
g5382
ssVb4013
p5385
(dp5386
g3
I0
sg4
(lp5387
VR_HSST
p5388
asg7
g5385
ssVb0849-b2675-b2676
p5389
(dp5390
g3
I0
sg4
(lp5391
g1887
ag1888
ag1889
ag1890
asg7
g5389
ssVb0403
p5392
(dp5393
g3
I0
sg4
(lp5394
VR_MLTG1
p5395
aVR_MLTG2
p5396
aVR_MLTG3
p5397
aVR_MLTG4
p5398
aVR_MLTG5
p5399
asg7
g5392
ssVb0401
p5400
(dp5401
g3
I0
sg4
(lp5402
VR_ILEt2rpp
p5403
aVR_LEUt2rpp
p5404
ag5255
asg7
g5400
ssVb0404
p5405
(dp5406
g3
I0
sg4
(lp5407
VR_FA100ACPHi
p5408
aVR_FA120ACPHi
p5409
aVR_FA140ACPHi
p5410
aVR_FA141ACPHi
p5411
aVR_FA160ACPHi
p5412
aVR_FA161ACPHi
p5413
aVR_FA80ACPHi
p5414
asg7
g5405
ssVb2710-b2711
p5415
(dp5416
g3
I0
sg4
(lp5417
VR_NHFRBO
p5418
asg7
g5415
ssVb4094
p5419
(dp5420
g3
I0
sg4
(lp5421
VR_R15BPK
p5422
asg7
g5419
ssVb4090
p5423
(dp5424
g3
I0
sg4
(lp5425
VR_ALLPI
p5426
ag3650
asg7
g5423
ssVb0241
p5427
(dp5428
g3
I0
sg4
(lp5429
g1581
ag1582
ag1583
ag1584
ag1585
ag1586
ag1587
ag1588
ag1589
ag1590
ag1591
ag1592
ag1593
ag1594
ag1595
ag1596
ag1597
ag1598
ag1599
ag1600
ag1601
ag1602
ag1603
ag1604
ag1605
ag1606
ag1607
ag1608
ag1610
ag1611
ag1612
ag1613
ag1614
ag1615
ag1616
ag1617
ag1618
ag1619
ag1620
ag1621
ag1622
ag1623
ag1624
ag1625
ag1626
ag1627
ag1628
ag1629
ag1630
ag1631
ag1632
ag1633
ag1634
ag1635
ag1636
ag1637
ag1638
ag1639
ag1640
ag1641
ag1642
ag1643
ag1644
ag1645
ag1646
ag1647
ag1648
ag1649
ag1650
ag1651
ag1652
ag1653
ag1654
ag1655
ag1656
ag1657
ag1658
ag1659
ag1660
ag1661
ag1662
ag1663
ag1664
ag1665
ag1666
ag1667
ag1668
ag1669
ag1670
ag1671
ag1672
ag1673
ag1674
ag1675
ag1676
ag1677
ag1678
ag1679
ag1680
ag1681
ag1682
ag1683
ag1684
ag1685
ag1686
ag1687
ag1688
ag1689
ag1690
ag1691
ag1692
ag1693
ag1694
ag1695
ag1696
ag1697
ag1698
ag1699
ag1700
ag1701
ag1702
ag1703
ag1704
ag1705
ag1706
ag1707
ag1708
ag1709
ag1710
ag1711
ag1712
ag1713
ag1714
ag1715
ag1716
ag1717
ag1718
ag1719
ag1720
ag1721
ag1722
ag1723
ag1724
ag1725
ag557
ag1726
ag1727
ag1728
ag1729
ag1730
ag1731
ag1732
ag1733
ag1734
ag1735
ag1736
ag1737
ag1738
ag1739
ag1740
ag1741
ag1742
ag1743
ag1744
ag1745
ag1746
ag1747
ag1748
ag1749
ag1750
ag1751
ag1752
ag1753
ag1754
ag1755
ag1756
ag1757
ag1758
ag1759
ag1760
ag1761
ag1762
ag1763
ag1764
ag1765
ag1766
ag1767
ag1768
ag1769
ag1770
ag1771
ag1772
ag1773
ag1774
ag1775
ag1776
ag1777
ag1778
ag1779
ag1780
ag1781
ag1782
ag1783
ag1784
ag1785
ag1786
ag1787
ag1788
ag1789
ag1790
ag1791
ag1792
ag1793
ag1794
ag1795
ag1796
ag1797
ag1798
ag1799
ag1800
ag1801
ag1802
ag1803
ag1804
ag1805
ag1806
ag1807
ag1808
ag1809
ag1810
ag1811
ag1812
ag1813
ag1814
ag1815
ag1816
ag1817
ag1818
ag1819
ag1820
ag1821
ag1822
ag1823
ag1824
ag1825
ag1826
ag1827
ag1828
ag1829
ag1830
ag1831
ag1832
ag1833
ag1834
ag1835
ag1836
ag1837
ag1838
ag1839
ag1840
ag1841
ag1842
ag1843
ag1844
ag1845
ag1846
ag1847
ag1848
ag1849
ag1850
asg7
g5427
ssVb0243
p5430
(dp5431
g3
I0
sg4
(lp5432
VR_G5SD
p5433
asg7
g5430
ssVb0242
p5434
(dp5435
g3
I0
sg4
(lp5436
VR_GLU5K
p5437
asg7
g5434
ssVb2895-b3924
p5438
(dp5439
g3
I0
sg4
(lp5440
g1376
asg7
g5438
ssVb2480-b2582
p5441
(dp5442
g3
I0
sg4
(lp5443
VR_THIORDXi
p5444
asg7
g5441
ssVb1711-b1709-b0158
p5445
(dp5446
g3
I0
sg4
(lp5447
VR_ADOCBLabcpp
p5448
aVR_CBIuabcpp
p5449
aVR_CBL1abcpp
p5450
asg7
g5445
ssVb2147-b2146
p5451
(dp5452
g3
I0
sg4
(lp5453
VR_DURADx
p5454
asg7
g5451
ssVb0185-b2316-b3255-b3256
p5455
(dp5456
g3
I0
sg4
(lp5457
VR_ACCOAC
p5458
asg7
g5455
ssVb3447
p5459
(dp5460
g3
I0
sg4
(lp5461
VR_GTHRDHpp
p5462
asg7
g5459
ssVb3288
p5463
(dp5464
g3
I0
sg4
(lp5465
VR_FMETTRS
p5466
asg7
g5463
ssS'enzyme_339'
p5467
(dp5468
g3
I0
sg4
(lp5469
VR_23DAPPAt2pp
p5470
asg7
g5467
ssS'enzyme_338'
p5471
(dp5472
g3
I0
sg4
(lp5473
VR_12PPDStpp
p5474
asg7
g5471
ssS'enzyme_335'
p5475
(dp5476
g3
I0
sg4
(lp5477
VR_12DGR180tipp
p5478
asg7
g5475
ssS'enzyme_334'
p5479
(dp5480
g3
I0
sg4
(lp5481
VR_12DGR161tipp
p5482
asg7
g5479
ssS'enzyme_337'
p5483
(dp5484
g3
I0
sg4
(lp5485
VR_12PPDRtpp
p5486
asg7
g5483
ssS'enzyme_336'
p5487
(dp5488
g3
I0
sg4
(lp5489
VR_12DGR181tipp
p5490
asg7
g5487
ssS'enzyme_331'
p5491
(dp5492
g3
I0
sg4
(lp5493
VR_12DGR140tipp
p5494
asg7
g5491
ssS'enzyme_330'
p5495
(dp5496
g3
I0
sg4
(lp5497
VR_12DGR120tipp
p5498
asg7
g5495
ssS'enzyme_333'
p5499
(dp5500
g3
I0
sg4
(lp5501
VR_12DGR160tipp
p5502
asg7
g5499
ssS'enzyme_332'
p5503
(dp5504
g3
I0
sg4
(lp5505
VR_12DGR141tipp
p5506
asg7
g5503
ssVb3519
p5507
(dp5508
g3
I0
sg4
(lp5509
VR_TREH
p5510
asg7
g5507
ssVb3040
p5511
(dp5512
g3
I0
sg4
(lp5513
VR_CD2tpp
p5514
aVR_COBALT2tpp
p5515
aVR_CU2tpp
p5516
aVR_FE2tpp
p5517
aVR_MN2tpp
p5518
aVR_ZN2tpp
p5519
asg7
g5511
ssVb3517
p5520
(dp5521
g3
I0
sg4
(lp5522
g2171
asg7
g5520
ssVb2393
p5523
(dp5524
g3
I0
sg4
(lp5525
g2093
ag2094
ag2095
ag2096
ag2099
ag2102
ag2103
asg7
g5523
ssVb2392
p5526
(dp5527
g3
I0
sg4
(lp5528
VR_FE2t2pp
p5529
aVR_MNt2pp
p5530
asg7
g5526
ssVb2315
p5531
(dp5532
g3
I0
sg4
(lp5533
VR_DHFS
p5534
asg7
g5531
ssVb2240
p5535
(dp5536
g3
I0
sg4
(lp5537
VR_GLYC3Pt6pp
p5538
asg7
g5535
ssS'enzyme_407'
p5539
(dp5540
g3
I0
sg4
(lp5541
VR_H2SO
p5542
asg7
g5539
ssVb3607
p5543
(dp5544
g3
I0
sg4
(lp5545
VR_SERAT
p5546
asg7
g5543
ssVb3600
p5547
(dp5548
g3
I0
sg4
(lp5549
VR_M1PD
p5550
asg7
g5547
ssS'enzyme_406'
p5551
(dp5552
g3
I0
sg4
(lp5553
VR_GUR1PPpp
p5554
asg7
g5551
ssVb3608
p5555
(dp5556
g3
I0
sg4
(lp5557
VR_G3PD2
p5558
asg7
g5555
ssS'enzyme_405'
p5559
(dp5560
g3
I0
sg4
(lp5561
VR_GUAtpp
p5562
asg7
g5559
ssVb2801
p5563
(dp5564
g3
I0
sg4
(lp5565
VR_FUCtpp
p5566
asg7
g5563
ssVb2800
p5567
(dp5568
g3
I0
sg4
(lp5569
VR_FCLPA
p5570
asg7
g5567
ssVb2803
p5571
(dp5572
g3
I0
sg4
(lp5573
VR_FCLK
p5574
asg7
g5571
ssVb2802
p5575
(dp5576
g3
I0
sg4
(lp5577
VR_FCI
p5578
asg7
g5575
ssVb1094-b4041
p5579
(dp5580
g3
I0
sg4
(lp5581
VR_G3PAT120
p5582
aVR_G3PAT140
p5583
aVR_G3PAT141
p5584
aVR_G3PAT160
p5585
aVR_G3PAT161
p5586
aVR_G3PAT180
p5587
aVR_G3PAT181
p5588
asg7
g5579
ssS'enzyme_403'
p5589
(dp5590
g3
I0
sg4
(lp5591
VR_GLYt2rpp
p5592
asg7
g5589
ssS'enzyme_402'
p5593
(dp5594
g3
I0
sg4
(lp5595
VR_GLYOX3
p5596
asg7
g5593
ssS'enzyme_401'
p5597
(dp5598
g3
I0
sg4
(lp5599
VR_FTHFLi
p5600
asg7
g5597
ssS'enzyme_400'
p5601
(dp5602
g3
I0
sg4
(lp5603
VR_FFSD
p5604
asg7
g5601
ssVb1241
p5605
(dp5606
g3
I0
sg4
(lp5607
g4446
ag451
asg7
g5605
ssS'enzyme_245'
p5608
(dp5609
g3
I0
sg4
(lp5610
VR_EX_no2_LPAREN_e_RPAREN_
p5611
asg7
g5608
ssS'enzyme_244'
p5612
(dp5613
g3
I0
sg4
(lp5614
VR_EX_no_LPAREN_e_RPAREN_
p5615
asg7
g5612
ssS'enzyme_247'
p5616
(dp5617
g3
I0
sg4
(lp5618
VR_EX_novbcn_LPAREN_e_RPAREN_
p5619
asg7
g5616
ssS'enzyme_246'
p5620
(dp5621
g3
I0
sg4
(lp5622
VR_EX_no3_LPAREN_e_RPAREN_
p5623
asg7
g5620
ssS'enzyme_241'
p5624
(dp5625
g3
I0
sg4
(lp5626
VR_EX_nh4_LPAREN_e_RPAREN_
p5627
asg7
g5624
ssS'enzyme_240'
p5628
(dp5629
g3
I0
sg4
(lp5630
VR_EX_nac_LPAREN_e_RPAREN_
p5631
asg7
g5628
ssS'enzyme_243'
p5632
(dp5633
g3
I0
sg4
(lp5634
VR_EX_nmn_LPAREN_e_RPAREN_
p5635
asg7
g5632
ssVb4208
p5636
(dp5637
g3
I0
sg4
(lp5638
VR_ALAt2pp
p5639
aVR_BALAt2pp
p5640
aVR_DALAt2pp
p5641
aVR_DSERt2pp
p5642
ag1068
asg7
g5636
ssVb3469
p5643
(dp5644
g3
I0
sg4
(lp5645
VR_CD2abcpp
p5646
aVR_COBALT2abcpp
p5647
aVR_CU2abcpp
p5648
aVR_HG2abcpp
p5649
aVR_NI2abcpp
p5650
aVR_ZN2abcpp
p5651
asg7
g5643
ssS'enzyme_249'
p5652
(dp5653
g3
I0
sg4
(lp5654
VR_EX_o2_LPAREN_e_RPAREN_
p5655
asg7
g5652
ssS'enzyme_248'
p5656
(dp5657
g3
I0
sg4
(lp5658
VR_EX_o16a4colipa_LPAREN_e_RPAREN_
p5659
asg7
g5656
ssVb2738
p5660
(dp5661
g3
I0
sg4
(lp5662
g5570
asg7
g5660
ssVb3770
p5663
(dp5664
g3
I0
sg4
(lp5665
VR_ILETA
p5666
ag3435
ag1576
aVR_VALTA
p5667
asg7
g5663
ssVb2422-b2424-b2423-b3917
p5668
(dp5669
g3
I0
sg4
(lp5670
g3447
ag3448
ag3965
asg7
g5668
ssVb3772
p5671
(dp5672
g3
I0
sg4
(lp5673
g1132
asg7
g5671
ssVb1224-b1225-b1226-b1227
p5674
(dp5675
g3
I0
sg4
(lp5676
g4358
ag4359
asg7
g5674
ssVb3774
p5677
(dp5678
g3
I0
sg4
(lp5679
g4425
aVR_KARA1
p5680
aVR_KARA2
p5681
asg7
g5677
ssVb2026
p5682
(dp5683
g3
I0
sg4
(lp5684
VR_PRAMPC
p5685
aVR_PRATPP
p5686
asg7
g5682
ssVb2024
p5687
(dp5688
g3
I0
sg4
(lp5689
VR_PRMICI
p5690
asg7
g5687
ssVb2022
p5691
(dp5692
g3
I0
sg4
(lp5693
VR_HISTP
p5694
aVR_IGPDH
p5695
asg7
g5691
ssVb2021
p5696
(dp5697
g3
I0
sg4
(lp5698
VR_HSTPT
p5699
asg7
g5696
ssVb2020
p5700
(dp5701
g3
I0
sg4
(lp5702
VR_HISTD
p5703
asg7
g5700
ssVb2029
p5704
(dp5705
g3
I0
sg4
(lp5706
VR_GND
p5707
asg7
g5704
ssVb2028
p5708
(dp5709
g3
I0
sg4
(lp5710
VR_UDPGD
p5711
asg7
g5708
ssVb0153-b0151-b0152
p5712
(dp5713
g3
I0
sg4
(lp5714
VR_ARBTNabcpp
p5715
aVR_CPGNabcpp
p5716
aVR_FE3HOXabcpp
p5717
aVR_FECRMabcpp
p5718
aVR_FEOXAMabcpp
p5719
asg7
g5712
ssVb1611
p5720
(dp5721
g3
I0
sg4
(lp5722
g929
asg7
g5720
ssVb1613
p5723
(dp5724
g3
I0
sg4
(lp5725
VR_MAN6PI
p5726
asg7
g5723
ssVb1612
p5727
(dp5728
g3
I0
sg4
(lp5729
g929
asg7
g5727
ssVb1927
p5730
(dp5731
g3
I0
sg4
(lp5732
VR_AAMYL
p5733
asg7
g5730
ssVb1297
p5734
(dp5735
g3
I0
sg4
(lp5736
VR_GGPTRCS
p5737
ag5217
asg7
g5734
ssVb1296
p5738
(dp5739
g3
I0
sg4
(lp5740
g4968
asg7
g5738
ssVb1298
p5741
(dp5742
g3
I0
sg4
(lp5743
VR_GGGABAH
p5744
asg7
g5741
ssVb2128-b2129-b2130-b2131
p5745
(dp5746
g3
I0
sg4
(lp5747
VR_CHLabcpp
p5748
aVR_GLYBabcpp
p5749
asg7
g5745
ssVb1107
p5750
(dp5751
g3
I0
sg4
(lp5752
VR_AGM3PH
p5753
aVR_AGM4PH
p5754
aVR_AGMH
p5755
asg7
g5750
ssVb3959
p5756
(dp5757
g3
I0
sg4
(lp5758
VR_ACGK
p5759
asg7
g5756
ssVb1109
p5760
(dp5761
g3
I0
sg4
(lp5762
VR_NADH10
p5763
aVR_NADH5
p5764
aVR_NADH9
p5765
asg7
g5760
ssVb2421
p5766
(dp5767
g3
I0
sg4
(lp5768
g2049
asg7
g5766
ssVb2132
p5769
(dp5770
g3
I0
sg4
(lp5771
VR_LACZpp
p5772
asg7
g5769
ssVb2134
p5773
(dp5774
g3
I0
sg4
(lp5775
g3987
ag3988
ag3989
ag3990
asg7
g5773
ssVb4395
p5776
(dp5777
g3
I0
sg4
(lp5778
g5116
asg7
g5776
ssVb4394
p5779
(dp5780
g3
I0
sg4
(lp5781
VR_NTP10
p5782
aVR_NTP11
p5783
aVR_NTP12
p5784
asg7
g5779
ssVb4392
p5785
(dp5786
g3
I0
sg4
(lp5787
g2115
ag2116
ag2117
ag2118
asg7
g5785
ssVb4390
p5788
(dp5789
g3
I0
sg4
(lp5790
VR_NMNAT
p5791
asg7
g5788
ssVb1723
p5792
(dp5793
g3
I0
sg4
(lp5794
g245
asg7
g5792
ssS'enzyme_27'
p5795
(dp5796
g3
I0
sg4
(lp5797
VR_EX_5dglcn_LPAREN_e_RPAREN_
p5798
asg7
g5795
ssVb0418
p5799
(dp5800
g3
I0
sg4
(lp5801
g356
ag357
ag358
ag359
ag360
ag361
ag362
ag363
ag364
ag365
ag366
ag367
ag368
ag369
asg7
g5799
ssVb0414
p5802
(dp5803
g3
I0
sg4
(lp5804
VR_APRAUR
p5805
aVR_DHPPDA2
p5806
asg7
g5802
ssVb0415
p5807
(dp5808
g3
I0
sg4
(lp5809
VR_RBFSb
p5810
asg7
g5807
ssVb0417
p5811
(dp5812
g3
I0
sg4
(lp5813
VR_TMPK
p5814
asg7
g5811
ssVb0411
p5815
(dp5816
g3
I0
sg4
(lp5817
VR_ADNtex
p5818
aVR_DADNtex
p5819
aVR_DCYTtex
p5820
aVR_DURItex
p5821
aVR_GUAtex
p5822
aVR_INStex
p5823
aVR_URItex
p5824
asg7
g5815
ssVb1064-b2675-b2676
p5825
(dp5826
g3
I0
sg4
(lp5827
g1887
ag1888
ag1889
ag1890
asg7
g5825
ssVb4177
p5828
(dp5829
g3
I0
sg4
(lp5830
VR_ADSS
p5831
asg7
g5828
ssVb2241-b2242-b2243
p5832
(dp5833
g3
I0
sg4
(lp5834
g4802
aVR_G3PD6
p5835
aVR_G3PD7
p5836
asg7
g5832
ssVb1012-b1007
p5837
(dp5838
g3
I0
sg4
(lp5839
VR_PYROX
p5840
asg7
g5837
ssVb0521
p5841
(dp5842
g3
I0
sg4
(lp5843
g1862
asg7
g5841
ssVb0522
p5844
(dp5845
g3
I0
sg4
(lp5846
VR_AIRC2
p5847
asg7
g5844
ssVb0523
p5848
(dp5849
g3
I0
sg4
(lp5850
VR_AIRC3
p5851
asg7
g5848
ssVb0524
p5852
(dp5853
g3
I0
sg4
(lp5854
VR_USHD
p5855
asg7
g5852
ssVb0526
p5856
(dp5857
g3
I0
sg4
(lp5858
VR_CYSTRS
p5859
asg7
g5856
ssVb0529
p5860
(dp5861
g3
I0
sg4
(lp5862
VR_MTHFC
p5863
aVR_MTHFD
p5864
asg7
g5860
ssVb0684-b4238
p5865
(dp5866
g3
I0
sg4
(lp5867
g3411
ag3412
ag3413
ag3414
asg7
g5865
ssVb2763-b2764
p5868
(dp5869
g3
I0
sg4
(lp5870
VR_FADRx2
p5871
ag4740
ag1046
aVR_SULRi
p5872
asg7
g5868
ssVb3892-b3893-b3894
p5873
(dp5874
g3
I0
sg4
(lp5875
g676
ag677
asg7
g5873
ssVb1654-b2675-b2676
p5876
(dp5877
g3
I0
sg4
(lp5878
g1887
ag1888
ag1889
ag1890
asg7
g5876
ssVb0149-b1069
p5879
(dp5880
g3
I0
sg4
(lp5881
g1023
ag1024
asg7
g5879
ssVb3029
p5882
(dp5883
g3
I0
sg4
(lp5884
VR_QMO2
p5885
aVR_QMO3
p5886
asg7
g5882
ssVb3476-b3477-b3478-b3479-b3480
p5887
(dp5888
g3
I0
sg4
(lp5889
g1487
asg7
g5887
ssVb0721-b0722-b0723-b0724
p5890
(dp5891
g3
I0
sg4
(lp5892
VR_SUCDi
p5893
asg7
g5890
ssS'enzyme_300'
p5894
(dp5895
g3
I0
sg4
(lp5896
VR_EX_thym_LPAREN_e_RPAREN_
p5897
asg7
g5894
ssS'enzyme_301'
p5898
(dp5899
g3
I0
sg4
(lp5900
VR_EX_thymd_LPAREN_e_RPAREN_
p5901
asg7
g5898
ssS'enzyme_302'
p5902
(dp5903
g3
I0
sg4
(lp5904
VR_EX_tma_LPAREN_e_RPAREN_
p5905
asg7
g5902
ssS'enzyme_303'
p5906
(dp5907
g3
I0
sg4
(lp5908
VR_EX_tmao_LPAREN_e_RPAREN_
p5909
asg7
g5906
ssS'enzyme_304'
p5910
(dp5911
g3
I0
sg4
(lp5912
VR_EX_tre_LPAREN_e_RPAREN_
p5913
asg7
g5910
ssS'enzyme_305'
p5914
(dp5915
g3
I0
sg4
(lp5916
VR_EX_trp_DASH_L_LPAREN_e_RPAREN_
p5917
asg7
g5914
ssS'enzyme_306'
p5918
(dp5919
g3
I0
sg4
(lp5920
VR_EX_tsul_LPAREN_e_RPAREN_
p5921
asg7
g5918
ssS'enzyme_307'
p5922
(dp5923
g3
I0
sg4
(lp5924
VR_EX_ttdca_LPAREN_e_RPAREN_
p5925
asg7
g5922
ssS'enzyme_308'
p5926
(dp5927
g3
I0
sg4
(lp5928
VR_EX_ttdcea_LPAREN_e_RPAREN_
p5929
asg7
g5926
ssS'enzyme_309'
p5930
(dp5931
g3
I0
sg4
(lp5932
VR_EX_ttrcyc_LPAREN_e_RPAREN_
p5933
asg7
g5930
ssVb2223
p5934
(dp5935
g3
I0
sg4
(lp5936
VR_ACACt2pp
p5937
aVR_BUTt2rpp
p5938
aVR_HEXt2rpp
p5939
asg7
g5934
ssVb3073
p5940
(dp5941
g3
I0
sg4
(lp5942
VR_PTRCTA
p5943
asg7
g5940
ssVb2388
p5944
(dp5945
g3
I0
sg4
(lp5946
VR_HEX1
p5947
asg7
g5944
ssVb3709
p5948
(dp5949
g3
I0
sg4
(lp5950
g460
asg7
g5948
ssVb3708
p5951
(dp5952
g3
I0
sg4
(lp5953
VR_CYSDS
p5954
ag1361
aVR_TRPAS2
p5955
asg7
g5951
ssVb3258
p5956
(dp5957
g3
I0
sg4
(lp5958
VR_PNTOt4pp
p5959
asg7
g5956
ssVb3380
p5960
(dp5961
g3
I0
sg4
(lp5962
VR_PPM
p5963
asg7
g5960
ssVb3385
p5964
(dp5965
g3
I0
sg4
(lp5966
VR_PGLYCP
p5967
asg7
g5964
ssVb3384
p5968
(dp5969
g3
I0
sg4
(lp5970
VR_TRPTRS
p5971
asg7
g5968
ssVb3386
p5972
(dp5973
g3
I0
sg4
(lp5974
g3296
asg7
g5972
ssVb3389
p5975
(dp5976
g3
I0
sg4
(lp5977
VR_DHQS
p5978
asg7
g5975
ssVb2251
p5979
(dp5980
g3
I0
sg4
(lp5981
VR_DUTPDP
p5982
ag2207
ag2210
asg7
g5979
ssVb2253
p5983
(dp5984
g3
I0
sg4
(lp5985
VR_UDPKAAT
p5986
asg7
g5983
ssVb2254
p5987
(dp5988
g3
I0
sg4
(lp5989
VR_UPLA4FNT
p5990
asg7
g5987
ssVb2255
p5991
(dp5992
g3
I0
sg4
(lp5993
VR_UDPGDC
p5994
aVR_ULA4NFT
p5995
asg7
g5991
ssVb2256
p5996
(dp5997
g3
I0
sg4
(lp5998
VR_UPLA4FNF
p5999
asg7
g5996
ssVb2257
p6000
(dp6001
g3
I0
sg4
(lp6002
VR_LA4NTpp
p6003
asg7
g6000
ssVb3679
p6004
(dp6005
g3
I0
sg4
(lp6006
VR_INOSTt4pp
p6007
asg7
g6004
ssVb2813
p6008
(dp6009
g3
I0
sg4
(lp6010
g2115
ag2116
ag2117
ag2118
asg7
g6008
ssVb2810
p6011
(dp6012
g3
I0
sg4
(lp6013
VR_CYSSADS
p6014
asg7
g6011
ssVb2817
p6015
(dp6016
g3
I0
sg4
(lp6017
g3251
ag3252
asg7
g6015
ssVb2818
p6018
(dp6019
g3
I0
sg4
(lp6020
VR_ACGS
p6021
asg7
g6018
ssVb3816
p6022
(dp6023
g3
I0
sg4
(lp6024
g5515
aVR_MG2tpp
p6025
aVR_NI2tpp
p6026
asg7
g6022
ssS'enzyme_278'
p6027
(dp6028
g3
I0
sg4
(lp6029
VR_EX_rib_DASH_D_LPAREN_e_RPAREN_
p6030
asg7
g6027
ssS'enzyme_279'
p6031
(dp6032
g3
I0
sg4
(lp6033
VR_EX_rmn_LPAREN_e_RPAREN_
p6034
asg7
g6031
ssVb2417-b2429-b2415-b2416
p6035
(dp6036
g3
I0
sg4
(lp6037
VR_ACMUMptspp
p6038
aVR_SUCptspp
p6039
asg7
g6035
ssS'enzyme_270'
p6040
(dp6041
g3
I0
sg4
(lp6042
VR_EX_ptrc_LPAREN_e_RPAREN_
p6043
asg7
g6040
ssS'enzyme_271'
p6044
(dp6045
g3
I0
sg4
(lp6046
VR_EX_pydam_LPAREN_e_RPAREN_
p6047
asg7
g6044
ssS'enzyme_272'
p6048
(dp6049
g3
I0
sg4
(lp6050
VR_EX_pydx_LPAREN_e_RPAREN_
p6051
asg7
g6048
ssS'enzyme_273'
p6052
(dp6053
g3
I0
sg4
(lp6054
VR_EX_pydxn_LPAREN_e_RPAREN_
p6055
asg7
g6052
ssS'enzyme_274'
p6056
(dp6057
g3
I0
sg4
(lp6058
VR_EX_pyr_LPAREN_e_RPAREN_
p6059
asg7
g6056
ssS'enzyme_275'
p6060
(dp6061
g3
I0
sg4
(lp6062
VR_EX_quin_LPAREN_e_RPAREN_
p6063
asg7
g6060
ssS'enzyme_276'
p6064
(dp6065
g3
I0
sg4
(lp6066
VR_EX_r5p_LPAREN_e_RPAREN_
p6067
asg7
g6064
ssS'enzyme_277'
p6068
(dp6069
g3
I0
sg4
(lp6070
VR_EX_rfamp_LPAREN_e_RPAREN_
p6071
asg7
g6068
ssVb2762-b3781
p6072
(dp6073
g3
I0
sg4
(lp6074
g815
asg7
g6072
ssVb3496
p6075
(dp6076
g3
I0
sg4
(lp6077
g387
ag388
asg7
g6075
ssVb3493
p6078
(dp6079
g3
I0
sg4
(lp6080
g3969
asg7
g6078
ssVb2019
p6081
(dp6082
g3
I0
sg4
(lp6083
VR_ATPPRT
p6084
asg7
g6081
ssVb3925
p6085
(dp6086
g3
I0
sg4
(lp6087
g3646
asg7
g6085
ssVb3927
p6088
(dp6089
g3
I0
sg4
(lp6090
VR_GLYALDtpp
p6091
ag555
aVR_UREAtpp
p6092
asg7
g6088
ssVb3926
p6093
(dp6094
g3
I0
sg4
(lp6095
VR_GLYK
p6096
asg7
g6093
ssVb2032
p6097
(dp6098
g3
I0
sg4
(lp6099
VR_O16GLCT1
p6100
asg7
g6097
ssVb2033
p6101
(dp6102
g3
I0
sg4
(lp6103
VR_O16AT
p6104
asg7
g6101
ssVb2034
p6105
(dp6106
g3
I0
sg4
(lp6107
VR_O16GALFT
p6108
asg7
g6105
ssVb2036
p6109
(dp6110
g3
I0
sg4
(lp6111
VR_UDPGALM
p6112
asg7
g6109
ssVb2037
p6113
(dp6114
g3
I0
sg4
(lp6115
VR_O16AUNDtpp
p6116
asg7
g6113
ssVb2038
p6117
(dp6118
g3
I0
sg4
(lp6119
VR_TDPDRE
p6120
asg7
g6117
ssVb2039
p6121
(dp6122
g3
I0
sg4
(lp6123
g2111
asg7
g6121
ssVb1606
p6124
(dp6125
g3
I0
sg4
(lp6126
VR_DHFR
p6127
aVR_DHMPTR
p6128
asg7
g6124
ssVb1605
p6129
(dp6130
g3
I0
sg4
(lp6131
VR_ARGORNt7pp
p6132
asg7
g6129
ssVb3736-b3737-b3738-b3731-b3732-b3733-b3734-b3735-b3739
p6133
(dp6134
g3
I0
sg4
(lp6135
g3304
asg7
g6133
ssVb1281
p6136
(dp6137
g3
I0
sg4
(lp6138
VR_OMPDC
p6139
asg7
g6136
ssVb2530-b2529
p6140
(dp6141
g3
I0
sg4
(lp6142
VR_I2FE2SR
p6143
asg7
g6140
ssVb1288
p6144
(dp6145
g3
I0
sg4
(lp6146
VR_EAR100x
p6147
aVR_EAR100y
p6148
aVR_EAR120x
p6149
aVR_EAR120y
p6150
aVR_EAR121x
p6151
aVR_EAR121y
p6152
aVR_EAR140x
p6153
aVR_EAR140y
p6154
aVR_EAR141x
p6155
aVR_EAR141y
p6156
aVR_EAR160x
p6157
aVR_EAR160y
p6158
aVR_EAR161x
p6159
aVR_EAR161y
p6160
aVR_EAR180x
p6161
aVR_EAR180y
p6162
aVR_EAR181x
p6163
aVR_EAR181y
p6164
aVR_EAR40x
p6165
aVR_EAR40y
p6166
aVR_EAR60x
p6167
aVR_EAR60y
p6168
aVR_EAR80x
p6169
aVR_EAR80y
p6170
aVR_EGMEACPR
p6171
aVR_EPMEACPR
p6172
asg7
g6144
ssVb1119
p6173
(dp6174
g3
I0
sg4
(lp6175
VR_ACGAMK
p6176
asg7
g6173
ssVb0642
p6177
(dp6178
g3
I0
sg4
(lp6179
VR_LEUTRS
p6180
asg7
g6177
ssVb4381
p6181
(dp6182
g3
I0
sg4
(lp6183
VR_DRPA
p6184
asg7
g6181
ssVb4382
p6185
(dp6186
g3
I0
sg4
(lp6187
VR_DURIPP
p6188
aVR_TMDPP
p6189
asg7
g6185
ssVb4383
p6190
(dp6191
g3
I0
sg4
(lp6192
g5963
aVR_PPM2
p6193
asg7
g6190
ssVb4384
p6194
(dp6195
g3
I0
sg4
(lp6196
g6188
aVR_PUNP1
p6197
aVR_PUNP2
p6198
ag1263
ag1264
ag1265
ag1266
asg7
g6194
ssVb4386
p6199
(dp6200
g3
I0
sg4
(lp6201
VR_LIPAMPL
p6202
aVR_LIPATPT
p6203
aVR_OCTNLL
p6204
asg7
g6199
ssVb4231-b4227-b4485-b4230
p6205
(dp6206
g3
I0
sg4
(lp6207
VR_GALabcpp
p6208
ag3505
asg7
g6205
ssVb1732
p6209
(dp6210
g3
I0
sg4
(lp6211
g2033
asg7
g6209
ssVb1734
p6212
(dp6213
g3
I0
sg4
(lp6214
VR_DC6PH
p6215
asg7
g6212
ssVb0732
p6216
(dp6217
g3
I0
sg4
(lp6218
VR_MANPGH
p6219
asg7
g6216
ssVb0736
p6220
(dp6221
g3
I0
sg4
(lp6222
VR_DHNCOAT
p6223
asg7
g6220
ssVb0469
p6224
(dp6225
g3
I0
sg4
(lp6226
VR_ADPT
p6227
asg7
g6224
ssVb0463-b0462-b3035
p6228
(dp6229
g3
I0
sg4
(lp6230
g4711
ag4712
ag4713
ag4714
ag4715
ag4716
ag4717
asg7
g6228
ssVb3132-b3137
p6231
(dp6232
g3
I0
sg4
(lp6233
g4502
asg7
g6231
ssVb0394
p6234
(dp6235
g3
I0
sg4
(lp6236
VR_HEX7
p6237
asg7
g6234
ssVb4169
p6238
(dp6239
g3
I0
sg4
(lp6240
g3251
ag3252
asg7
g6238
ssVb2417-b1621-b2415-b2416
p6241
(dp6242
g3
I0
sg4
(lp6243
g3239
aVR_MALTptspp
p6244
asg7
g6241
ssVb0116-b0726-b0727
p6245
(dp6246
g3
I0
sg4
(lp6247
VR_AKGDH
p6248
asg7
g6245
ssVb4160
p6249
(dp6250
g3
I0
sg4
(lp6251
VR_PSD120
p6252
aVR_PSD140
p6253
aVR_PSD141
p6254
aVR_PSD160
p6255
aVR_PSD161
p6256
aVR_PSD180
p6257
aVR_PSD181
p6258
asg7
g6249
ssVb4161
p6259
(dp6260
g3
I0
sg4
(lp6261
VR_NTP1
p6262
ag5782
aVR_NTP3
p6263
aVR_NTP5
p6264
asg7
g6259
ssVb3966-b1252-b3005-b3006
p6265
(dp6266
g3
I0
sg4
(lp6267
VR_ADOCBLtonex
p6268
aVR_CBItonex
p6269
aVR_CBL1tonex
p6270
asg7
g6265
ssVb0088
p6271
(dp6272
g3
I0
sg4
(lp6273
VR_UAMAGS
p6274
asg7
g6271
ssVb0087
p6275
(dp6276
g3
I0
sg4
(lp6277
VR_PAPPT3
p6278
asg7
g6275
ssVb0086
p6279
(dp6280
g3
I0
sg4
(lp6281
VR_UGMDDS
p6282
asg7
g6279
ssVb0085
p6283
(dp6284
g3
I0
sg4
(lp6285
VR_UAAGDS
p6286
asg7
g6283
ssVb0084
p6287
(dp6288
g3
I0
sg4
(lp6289
g2916
ag2917
asg7
g6287
ssVb0261
p6290
(dp6291
g3
I0
sg4
(lp6292
VR_HCYSMT
p6293
aVR_HCYSMT2
p6294
asg7
g6290
ssVb0260
p6295
(dp6296
g3
I0
sg4
(lp6297
VR_MMETt2pp
p6298
asg7
g6295
ssVb0061
p6299
(dp6300
g3
I0
sg4
(lp6301
g613
asg7
g6299
ssVb0063
p6302
(dp6303
g3
I0
sg4
(lp6304
VR_RBK_L1
p6305
ag1900
ag622
asg7
g6302
ssVb0062
p6306
(dp6307
g3
I0
sg4
(lp6308
VR_ARAI
p6309
asg7
g6306
ssVb3059
p6310
(dp6311
g3
I0
sg4
(lp6312
VR_APG3PAT120
p6313
aVR_APG3PAT140
p6314
aVR_APG3PAT141
p6315
aVR_APG3PAT160
p6316
aVR_APG3PAT161
p6317
aVR_APG3PAT180
p6318
aVR_APG3PAT181
p6319
asg7
g6310
ssVb1872-b1873
p6320
(dp6321
g3
I0
sg4
(lp6322
VR_DMSOR1pp
p6323
aVR_DMSOR2pp
p6324
ag2546
ag2547
asg7
g6320
ssVb3052
p6325
(dp6326
g3
I0
sg4
(lp6327
VR_GMHEPAT
p6328
aVR_GMHEPK
p6329
asg7
g6325
ssVb3425
p6330
(dp6331
g3
I0
sg4
(lp6332
VR_CYANST
p6333
asg7
g6330
ssVb2480-b3781
p6334
(dp6335
g3
I0
sg4
(lp6336
g5444
asg7
g6334
ssS'enzyme_317'
p6337
(dp6338
g3
I0
sg4
(lp6339
VR_EX_udpgal_LPAREN_e_RPAREN_
p6340
asg7
g6337
ssS'enzyme_316'
p6341
(dp6342
g3
I0
sg4
(lp6343
VR_EX_udpg_LPAREN_e_RPAREN_
p6344
asg7
g6341
ssS'enzyme_315'
p6345
(dp6346
g3
I0
sg4
(lp6347
VR_EX_udpacgal_LPAREN_e_RPAREN_
p6348
asg7
g6345
ssS'enzyme_314'
p6349
(dp6350
g3
I0
sg4
(lp6351
VR_EX_uacgam_LPAREN_e_RPAREN_
p6352
asg7
g6349
ssS'enzyme_313'
p6353
(dp6354
g3
I0
sg4
(lp6355
VR_EX_tyrp_LPAREN_e_RPAREN_
p6356
asg7
g6353
ssS'enzyme_312'
p6357
(dp6358
g3
I0
sg4
(lp6359
VR_EX_tyr_DASH_L_LPAREN_e_RPAREN_
p6360
asg7
g6357
ssS'enzyme_311'
p6361
(dp6362
g3
I0
sg4
(lp6363
VR_EX_tym_LPAREN_e_RPAREN_
p6364
asg7
g6361
ssS'enzyme_310'
p6365
(dp6366
g3
I0
sg4
(lp6367
VR_EX_tungs_LPAREN_e_RPAREN_
p6368
asg7
g6365
ssS'enzyme_319'
p6369
(dp6370
g3
I0
sg4
(lp6371
VR_EX_ump_LPAREN_e_RPAREN_
p6372
asg7
g6369
ssS'enzyme_318'
p6373
(dp6374
g3
I0
sg4
(lp6375
VR_EX_udpglcur_LPAREN_e_RPAREN_
p6376
asg7
g6373
ssVb0684-b3924-b4238-b4237
p6377
(dp6378
g3
I0
sg4
(lp6379
g3411
ag3412
ag3413
ag3414
asg7
g6377
ssVb3714
p6380
(dp6381
g3
I0
sg4
(lp6382
VR_ADEt2rpp
p6383
asg7
g6380
ssVb3749-b3751-b3750-b3748
p6384
(dp6385
g3
I0
sg4
(lp6386
g3505
asg7
g6384
ssVb1200-b1199-b1198-b2415-b2416
p6387
(dp6388
g3
I0
sg4
(lp6389
VR_DHAPT
p6390
asg7
g6387
ssVb3807-b1683-b1682-b1681-b1679-b1680
p6391
(dp6392
g3
I0
sg4
(lp6393
VR_S2FE2SS
p6394
aVR_S2FE2SS2
p6395
asg7
g6391
ssVb3390
p6396
(dp6397
g3
I0
sg4
(lp6398
VR_SHKK
p6399
asg7
g6396
ssVb3396
p6400
(dp6401
g3
I0
sg4
(lp6402
g2916
ag3940
ag2917
asg7
g6400
ssVb3397
p6403
(dp6404
g3
I0
sg4
(lp6405
g582
asg7
g6403
ssS'enzyme_447'
p6406
(dp6407
g3
I0
sg4
(lp6408
VR_QUIN2tpp
p6409
asg7
g6406
ssVb3666
p6410
(dp6411
g3
I0
sg4
(lp6412
VR_F6Pt6_2pp
p6413
aVR_G6Pt6_2pp
p6414
aVR_GAM6Pt6_2pp
p6415
aVR_MAN6Pt6_2pp
p6416
asg7
g6410
ssVb3665
p6417
(dp6418
g3
I0
sg4
(lp6419
VR_ADD
p6420
asg7
g6417
ssVb2827
p6421
(dp6422
g3
I0
sg4
(lp6423
VR_TMDS
p6424
asg7
g6421
ssVb2536
p6425
(dp6426
g3
I0
sg4
(lp6427
VR_PPPNt2rpp
p6428
asg7
g6425
ssVb2530
p6429
(dp6430
g3
I0
sg4
(lp6431
VR_ICYSDS
p6432
asg7
g6429
ssVb2533
p6433
(dp6434
g3
I0
sg4
(lp6435
VR_G2PP
p6436
aVR_MI1PP
p6437
asg7
g6433
ssVb3809
p6438
(dp6439
g3
I0
sg4
(lp6440
VR_DAPE
p6441
asg7
g6438
ssVb3803
p6442
(dp6443
g3
I0
sg4
(lp6444
g655
asg7
g6442
ssVb3806
p6445
(dp6446
g3
I0
sg4
(lp6447
VR_ADNCYC
p6448
asg7
g6445
ssVb3804
p6449
(dp6450
g3
I0
sg4
(lp6451
VR_UPP3S
p6452
asg7
g6449
ssVb3805
p6453
(dp6454
g3
I0
sg4
(lp6455
VR_HMBS
p6456
asg7
g6453
ssS'enzyme_269'
p6457
(dp6458
g3
I0
sg4
(lp6459
VR_EX_pser_DASH_L_LPAREN_e_RPAREN_
p6460
asg7
g6457
ssS'enzyme_268'
p6461
(dp6462
g3
I0
sg4
(lp6463
VR_EX_psclys_LPAREN_e_RPAREN_
p6464
asg7
g6461
ssS'enzyme_267'
p6465
(dp6466
g3
I0
sg4
(lp6467
VR_EX_progly_LPAREN_e_RPAREN_
p6468
asg7
g6465
ssS'enzyme_266'
p6469
(dp6470
g3
I0
sg4
(lp6471
VR_EX_pro_DASH_L_LPAREN_e_RPAREN_
p6472
asg7
g6469
ssS'enzyme_265'
p6473
(dp6474
g3
I0
sg4
(lp6475
VR_EX_ppt_LPAREN_e_RPAREN_
p6476
asg7
g6473
ssS'enzyme_264'
p6477
(dp6478
g3
I0
sg4
(lp6479
VR_EX_pppn_LPAREN_e_RPAREN_
p6480
asg7
g6477
ssS'enzyme_263'
p6481
(dp6482
g3
I0
sg4
(lp6483
VR_EX_ppal_LPAREN_e_RPAREN_
p6484
asg7
g6481
ssS'enzyme_262'
p6485
(dp6486
g3
I0
sg4
(lp6487
VR_EX_ppa_LPAREN_e_RPAREN_
p6488
asg7
g6485
ssS'enzyme_261'
p6489
(dp6490
g3
I0
sg4
(lp6491
VR_EX_pnto_DASH_R_LPAREN_e_RPAREN_
p6492
asg7
g6489
ssS'enzyme_260'
p6493
(dp6494
g3
I0
sg4
(lp6495
VR_EX_pi_LPAREN_e_RPAREN_
p6496
asg7
g6493
ssVb2750
p6497
(dp6498
g3
I0
sg4
(lp6499
VR_ADSK
p6500
asg7
g6497
ssVb3930
p6501
(dp6502
g3
I0
sg4
(lp6503
VR_DHNAOT4
p6504
asg7
g6501
ssVb3939
p6505
(dp6506
g3
I0
sg4
(lp6507
VR_SHSL1
p6508
asg7
g6505
ssS'enzyme_132'
p6509
(dp6510
g3
I0
sg4
(lp6511
VR_EX_feenter_LPAREN_e_RPAREN_
p6512
asg7
g6509
ssVb0429-b0430-b0431-b0432
p6513
(dp6514
g3
I0
sg4
(lp6515
VR_CYTBO3_4pp
p6516
asg7
g6513
ssVb1638
p6517
(dp6518
g3
I0
sg4
(lp6519
VR_PDX5POi
p6520
aVR_PYAM5PO
p6521
asg7
g6517
ssVb1637
p6522
(dp6523
g3
I0
sg4
(lp6524
VR_TYRTRS
p6525
asg7
g6522
ssVb1636
p6526
(dp6527
g3
I0
sg4
(lp6528
g2886
asg7
g6526
ssVb1634
p6529
(dp6530
g3
I0
sg4
(lp6531
g387
ag388
asg7
g6529
ssVb3752
p6532
(dp6533
g3
I0
sg4
(lp6534
VR_RBK
p6535
asg7
g6532
ssVb0902-b0903
p6536
(dp6537
g3
I0
sg4
(lp6538
g1908
ag1909
asg7
g6536
ssVb2379
p6539
(dp6540
g3
I0
sg4
(lp6541
VR_ALATA_L
p6542
asg7
g6539
ssVb2378
p6543
(dp6544
g3
I0
sg4
(lp6545
VR_EDTXS3
p6546
asg7
g6543
ssVb1704
p6547
(dp6548
g3
I0
sg4
(lp6549
g200
asg7
g6547
ssVb1250
p6550
(dp6551
g3
I0
sg4
(lp6552
g3914
asg7
g6550
ssVb1701
p6553
(dp6554
g3
I0
sg4
(lp6555
g4258
ag4259
ag4260
ag4261
ag4262
ag4263
ag4264
ag4265
ag4266
ag4267
asg7
g6553
ssVb0650
p6556
(dp6557
g3
I0
sg4
(lp6558
g6262
asg7
g6556
ssVb0651
p6559
(dp6560
g3
I0
sg4
(lp6561
g746
ag747
asg7
g6559
ssVb3265-b3266-b3035
p6562
(dp6563
g3
I0
sg4
(lp6564
VR_INDOLEt2pp
p6565
asg7
g6562
ssVb4374
p6566
(dp6567
g3
I0
sg4
(lp6568
g4814
aVR_NTD2
p6569
ag4817
asg7
g6566
ssVb0728-b0729
p6570
(dp6571
g3
I0
sg4
(lp6572
VR_SUCOAS
p6573
asg7
g6570
ssS'enzyme_258'
p6574
(dp6575
g3
I0
sg4
(lp6576
VR_EX_phe_DASH_L_LPAREN_e_RPAREN_
p6577
asg7
g6574
ssVb0720
p6578
(dp6579
g3
I0
sg4
(lp6580
VR_CS
p6581
asg7
g6578
ssVb0893
p6582
(dp6583
g3
I0
sg4
(lp6584
VR_SERTRS
p6585
aVR_SERTRS2
p6586
asg7
g6582
ssVb1380
p6587
(dp6588
g3
I0
sg4
(lp6589
VR_LDH_D
p6590
asg7
g6587
ssVb1387
p6591
(dp6592
g3
I0
sg4
(lp6593
VR_OXCOAHDH
p6594
asg7
g6591
ssVb1386
p6595
(dp6596
g3
I0
sg4
(lp6597
VR_42A12BOOXpp
p6598
aVR_PEAMNOpp
p6599
aVR_TYROXDApp
p6600
asg7
g6595
ssVb1385
p6601
(dp6602
g3
I0
sg4
(lp6603
VR_ALDD19xr
p6604
asg7
g6601
ssVb0477
p6605
(dp6606
g3
I0
sg4
(lp6607
VR_GSNK
p6608
aVR_INSK
p6609
asg7
g6605
ssVb0474
p6610
(dp6611
g3
I0
sg4
(lp6612
VR_ADK1
p6613
aVR_ADK3
p6614
aVR_ADK4
p6615
aVR_ADNK1
p6616
aVR_DADK
p6617
ag11
ag12
ag13
ag14
ag15
ag16
ag17
ag18
asg7
g6610
ssVb0475
p6618
(dp6619
g3
I0
sg4
(lp6620
VR_FCLT
p6621
asg7
g6618
ssVb4119
p6622
(dp6623
g3
I0
sg4
(lp6624
VR_GALS3
p6625
asg7
g6622
ssVb4388
p6626
(dp6627
g3
I0
sg4
(lp6628
VR_PSP_L
p6629
asg7
g6626
ssVb3551-b2582
p6630
(dp6631
g3
I0
sg4
(lp6632
g590
asg7
g6630
ssVb1415
p6633
(dp6634
g3
I0
sg4
(lp6635
VR_GCALDD
p6636
aVR_LCADi
p6637
asg7
g6633
ssVb4111
p6638
(dp6639
g3
I0
sg4
(lp6640
VR_CRNDt2rpp
p6641
aVR_CRNt2rpp
p6642
aVR_CTBTt2rpp
p6643
ag1067
aVR_PROt2rpp
p6644
asg7
g6638
ssVb4115
p6645
(dp6646
g3
I0
sg4
(lp6647
VR_ARGAGMt7pp
p6648
asg7
g6645
ssVb4117
p6649
(dp6650
g3
I0
sg4
(lp6651
VR_ARGDC
p6652
asg7
g6649
ssVb1291-b3290-b3849
p6653
(dp6654
g3
I0
sg4
(lp6655
g3914
asg7
g6653
ssVb0099
p6656
(dp6657
g3
I0
sg4
(lp6658
g908
ag2205
ag2206
asg7
g6656
ssVb0090
p6659
(dp6660
g3
I0
sg4
(lp6661
VR_UAGPT3
p6662
asg7
g6659
ssVb0091
p6663
(dp6664
g3
I0
sg4
(lp6665
VR_UAMAS
p6666
asg7
g6663
ssVb0092
p6667
(dp6668
g3
I0
sg4
(lp6669
VR_ALAALAr
p6670
asg7
g6667
ssVb0096
p6671
(dp6672
g3
I0
sg4
(lp6673
VR_UHGADA
p6674
asg7
g6671
ssVb0273
p6675
(dp6676
g3
I0
sg4
(lp6677
g2355
asg7
g6675
ssVb0026
p6678
(dp6679
g3
I0
sg4
(lp6680
VR_ILETRS
p6681
asg7
g6678
ssVb4025
p6682
(dp6683
g3
I0
sg4
(lp6684
VR_PGI
p6685
asg7
g6682
ssVb4024
p6686
(dp6687
g3
I0
sg4
(lp6688
g2389
asg7
g6686
ssVb0074
p6689
(dp6690
g3
I0
sg4
(lp6691
VR_IPPS
p6692
asg7
g6689
ssVb0073
p6693
(dp6694
g3
I0
sg4
(lp6695
VR_IPMD
p6696
asg7
g6693
ssVb0070
p6697
(dp6698
g3
I0
sg4
(lp6699
g213
asg7
g6697
ssVb1683-b1682-b1681
p6700
(dp6701
g3
I0
sg4
(lp6702
VR_S4FE4SR
p6703
asg7
g6700
ssVb0386
p6704
(dp6705
g3
I0
sg4
(lp6706
VR_P5CR
p6707
asg7
g6704
ssVb0381
p6708
(dp6709
g3
I0
sg4
(lp6710
g6670
asg7
g6708
ssVb0383
p6711
(dp6712
g3
I0
sg4
(lp6713
VR_PPTHpp
p6714
asg7
g6711
ssVb0388
p6715
(dp6716
g3
I0
sg4
(lp6717
g6399
asg7
g6715
ssVb3972
p6718
(dp6719
g3
I0
sg4
(lp6720
VR_UAPGR
p6721
asg7
g6718
ssVb2979-b4467-b4468
p6722
(dp6723
g3
I0
sg4
(lp6724
VR_GLYCTO2
p6725
aVR_GLYCTO3
p6726
aVR_GLYCTO4
p6727
asg7
g6722
ssVb0639
p6728
(dp6729
g3
I0
sg4
(lp6730
g5791
aVR_NNATr
p6731
asg7
g6728
ssVb4136-b0604
p6732
(dp6733
g3
I0
sg4
(lp6734
VR_TDSR2
p6735
asg7
g6732
ssVb3012
p6736
(dp6737
g3
I0
sg4
(lp6738
g3495
ag3496
asg7
g6736
ssVb3018
p6739
(dp6740
g3
I0
sg4
(lp6741
VR_AGPAT120
p6742
aVR_AGPAT140
p6743
aVR_AGPAT141
p6744
aVR_AGPAT160
p6745
aVR_AGPAT161
p6746
aVR_AGPAT180
p6747
aVR_AGPAT181
p6748
asg7
g6739
ssVb2913
p6749
(dp6750
g3
I0
sg4
(lp6751
VR_PGCD
p6752
asg7
g6749
ssVb3729
p6753
(dp6754
g3
I0
sg4
(lp6755
VR_GF6PTA
p6756
asg7
g6753
ssVb3236
p6757
(dp6758
g3
I0
sg4
(lp6759
VR_MDH
p6760
asg7
g6757
ssVb1243-b1244-b1245-b1246-b1247
p6761
(dp6762
g3
I0
sg4
(lp6763
VR_4PEPTabcpp
p6764
asg7
g6761
ssVb0731-b2415-b2416
p6765
(dp6766
g3
I0
sg4
(lp6767
VR_MANGLYCptspp
p6768
asg7
g6765
ssVb2912
p6769
(dp6770
g3
I0
sg4
(lp6771
VR_FOMETRi
p6772
asg7
g6769
ssS'enzyme_256'
p6773
(dp6774
g3
I0
sg4
(lp6775
VR_EX_pacald_LPAREN_e_RPAREN_
p6776
asg7
g6773
ssS'enzyme_257'
p6777
(dp6778
g3
I0
sg4
(lp6779
VR_EX_peamn_LPAREN_e_RPAREN_
p6780
asg7
g6777
ssVb3475
p6781
(dp6782
g3
I0
sg4
(lp6783
g2142
asg7
g6781
ssVb3128
p6784
(dp6785
g3
I0
sg4
(lp6786
VR_GALCTD
p6787
asg7
g6784
ssVb3125
p6788
(dp6789
g3
I0
sg4
(lp6790
g4922
asg7
g6788
ssVb3124
p6791
(dp6792
g3
I0
sg4
(lp6793
VR_GLYCK2
p6794
asg7
g6791
ssVb3127
p6795
(dp6796
g3
I0
sg4
(lp6797
g2183
ag2184
ag2185
asg7
g6795
ssVb3654
p6798
(dp6799
g3
I0
sg4
(lp6800
g6383
aVR_GUAt2pp
p6801
ag1341
asg7
g6798
ssVb3653
p6802
(dp6803
g3
I0
sg4
(lp6804
VR_GLUt4pp
p6805
asg7
g6802
ssVb3650
p6806
(dp6807
g3
I0
sg4
(lp6808
g2192
aVR_GDPTPDP
p6809
aVR_PPGPPDP
p6810
asg7
g6806
ssVb2838
p6811
(dp6812
g3
I0
sg4
(lp6813
VR_DAPDC
p6814
asg7
g6811
ssVb3835
p6815
(dp6816
g3
I0
sg4
(lp6817
VR_OPHHX
p6818
asg7
g6815
ssVb3833
p6819
(dp6820
g3
I0
sg4
(lp6821
VR_AMMQLT8
p6822
aVR_OMBZLM
p6823
asg7
g6819
ssVb3831
p6824
(dp6825
g3
I0
sg4
(lp6826
VR_PYNP2r
p6827
asg7
g6824
ssVb2529
p6828
(dp6829
g3
I0
sg4
(lp6830
VR_I4FE4SR
p6831
asg7
g6828
ssVb2296
p6832
(dp6833
g3
I0
sg4
(lp6834
g1122
asg7
g6832
ssVb2297
p6835
(dp6836
g3
I0
sg4
(lp6837
VR_PTA2
p6838
ag845
asg7
g6835
ssVb2290
p6839
(dp6840
g3
I0
sg4
(lp6841
g6542
asg7
g6839
ssVb2835
p6842
(dp6843
g3
I0
sg4
(lp6844
VR_2AGPA120tipp
p6845
aVR_2AGPA140tipp
p6846
aVR_2AGPA141tipp
p6847
aVR_2AGPA160tipp
p6848
aVR_2AGPA161tipp
p6849
aVR_2AGPA180tipp
p6850
aVR_2AGPA181tipp
p6851
aVR_2AGPE120tipp
p6852
aVR_2AGPE140tipp
p6853
aVR_2AGPE141tipp
p6854
aVR_2AGPE160tipp
p6855
aVR_2AGPE161tipp
p6856
aVR_2AGPE180tipp
p6857
aVR_2AGPE181tipp
p6858
aVR_2AGPG120tipp
p6859
aVR_2AGPG140tipp
p6860
aVR_2AGPG141tipp
p6861
aVR_2AGPG160tipp
p6862
aVR_2AGPG161tipp
p6863
aVR_2AGPG180tipp
p6864
aVR_2AGPG181tipp
p6865
asg7
g6842
ssVb2836
p6866
(dp6867
g3
I0
sg4
(lp6868
VR_2AGPEAT120
p6869
aVR_2AGPEAT140
p6870
aVR_2AGPEAT141
p6871
aVR_2AGPEAT160
p6872
aVR_2AGPEAT161
p6873
aVR_2AGPEAT180
p6874
aVR_2AGPEAT181
p6875
aVR_2AGPGAT120
p6876
aVR_2AGPGAT140
p6877
aVR_2AGPGAT141
p6878
aVR_2AGPGAT160
p6879
aVR_2AGPGAT161
p6880
aVR_2AGPGAT180
p6881
aVR_2AGPGAT181
p6882
asg7
g6866
ssVb2521
p6883
(dp6884
g3
I0
sg4
(lp6885
VR_MCPST
p6886
asg7
g6883
ssS'enzyme_292'
p6887
(dp6888
g3
I0
sg4
(lp6889
VR_EX_sulfac_LPAREN_e_RPAREN_
p6890
asg7
g6887
ssS'enzyme_293'
p6891
(dp6892
g3
I0
sg4
(lp6893
VR_EX_tartr_DASH_D_LPAREN_e_RPAREN_
p6894
asg7
g6891
ssS'enzyme_290'
p6895
(dp6896
g3
I0
sg4
(lp6897
VR_EX_succ_LPAREN_e_RPAREN_
p6898
asg7
g6895
ssS'enzyme_291'
p6899
(dp6900
g3
I0
sg4
(lp6901
VR_EX_sucr_LPAREN_e_RPAREN_
p6902
asg7
g6899
ssS'enzyme_296'
p6903
(dp6904
g3
I0
sg4
(lp6905
VR_EX_tcynt_LPAREN_e_RPAREN_
p6906
asg7
g6903
ssS'enzyme_297'
p6907
(dp6908
g3
I0
sg4
(lp6909
VR_EX_thm_LPAREN_e_RPAREN_
p6910
asg7
g6907
ssS'enzyme_294'
p6911
(dp6912
g3
I0
sg4
(lp6913
VR_EX_tartr_DASH_L_LPAREN_e_RPAREN_
p6914
asg7
g6911
ssS'enzyme_295'
p6915
(dp6916
g3
I0
sg4
(lp6917
VR_EX_taur_LPAREN_e_RPAREN_
p6918
asg7
g6915
ssS'enzyme_298'
p6919
(dp6920
g3
I0
sg4
(lp6921
VR_EX_thr_DASH_L_LPAREN_e_RPAREN_
p6922
asg7
g6919
ssS'enzyme_299'
p6923
(dp6924
g3
I0
sg4
(lp6925
VR_EX_thrp_LPAREN_e_RPAREN_
p6926
asg7
g6923
ssS'enzyme_102'
p6927
(dp6928
g3
I0
sg4
(lp6929
VR_EX_dcyt_LPAREN_e_RPAREN_
p6930
asg7
g6927
ssS'enzyme_103'
p6931
(dp6932
g3
I0
sg4
(lp6933
VR_EX_ddca_LPAREN_e_RPAREN_
p6934
asg7
g6931
ssS'enzyme_100'
p6935
(dp6936
g3
I0
sg4
(lp6937
VR_EX_dca_LPAREN_e_RPAREN_
p6938
asg7
g6935
ssS'enzyme_101'
p6939
(dp6940
g3
I0
sg4
(lp6941
VR_EX_dcmp_LPAREN_e_RPAREN_
p6942
asg7
g6939
ssS'enzyme_106'
p6943
(dp6944
g3
I0
sg4
(lp6945
VR_EX_dha_LPAREN_e_RPAREN_
p6946
asg7
g6943
ssS'enzyme_107'
p6947
(dp6948
g3
I0
sg4
(lp6949
VR_EX_dimp_LPAREN_e_RPAREN_
p6950
asg7
g6947
ssS'enzyme_104'
p6951
(dp6952
g3
I0
sg4
(lp6953
VR_EX_dgmp_LPAREN_e_RPAREN_
p6954
asg7
g6951
ssS'enzyme_105'
p6955
(dp6956
g3
I0
sg4
(lp6957
VR_EX_dgsn_LPAREN_e_RPAREN_
p6958
asg7
g6955
ssS'enzyme_454'
p6959
(dp6960
g3
I0
sg4
(lp6961
VR_ThDPAT
p6962
asg7
g6959
ssS'enzyme_455'
p6963
(dp6964
g3
I0
sg4
(lp6965
VR_UDCPPtppi
p6966
asg7
g6963
ssS'enzyme_108'
p6967
(dp6968
g3
I0
sg4
(lp6969
VR_EX_din_LPAREN_e_RPAREN_
p6970
asg7
g6967
ssS'enzyme_109'
p6971
(dp6972
g3
I0
sg4
(lp6973
VR_EX_dms_LPAREN_e_RPAREN_
p6974
asg7
g6971
ssVb2133
p6975
(dp6976
g3
I0
sg4
(lp6977
g6590
aVR_LDH_D2
p6978
asg7
g6975
ssS'enzyme_451'
p6979
(dp6980
g3
I0
sg4
(lp6981
VR_SELGTHR3
p6982
asg7
g6979
ssS'enzyme_452'
p6983
(dp6984
g3
I0
sg4
(lp6985
VR_SUCCt3pp
p6986
asg7
g6983
ssS'enzyme_453'
p6987
(dp6988
g3
I0
sg4
(lp6989
VR_THYMt3pp
p6990
asg7
g6987
ssVb2746
p6991
(dp6992
g3
I0
sg4
(lp6993
VR_MECDPS
p6994
asg7
g6991
ssVb2747
p6995
(dp6996
g3
I0
sg4
(lp6997
VR_MEPCT
p6998
asg7
g6995
ssVb2744
p6999
(dp7000
g3
I0
sg4
(lp7001
g4814
aVR_NTD10
p7002
aVR_NTD11
p7003
ag4815
ag6569
ag4816
aVR_NTD4
p7004
ag4817
ag4818
aVR_NTD7
p7005
ag4819
aVR_NTD9
p7006
ag832
ag833
asg7
g6999
ssVb3903
p7007
(dp7008
g3
I0
sg4
(lp7009
VR_LYXI
p7010
aVR_RMI
p7011
asg7
g7007
ssVb3902
p7012
(dp7013
g3
I0
sg4
(lp7014
VR_RMPA
p7015
asg7
g7012
ssVb3907
p7016
(dp7017
g3
I0
sg4
(lp7018
VR_LYXt2pp
p7019
aVR_RMNtpp
p7020
asg7
g7016
ssVb3904
p7021
(dp7022
g3
I0
sg4
(lp7023
VR_RMK
p7024
asg7
g7021
ssVb3909
p7025
(dp7026
g3
I0
sg4
(lp7027
VR_DDGLCNt2rpp
p7028
ag3037
asg7
g7025
ssVb3908
p7029
(dp7030
g3
I0
sg4
(lp7031
g400
asg7
g7029
ssVb0698-b0697-b0696-b4513
p7032
(dp7033
g3
I0
sg4
(lp7034
g2175
asg7
g7032
ssVb0032-b0033
p7035
(dp7036
g3
I0
sg4
(lp7037
VR_CBPS
p7038
asg7
g7035
ssVb2530-b3992-b3990-b0423-b4407
p7039
(dp7040
g3
I0
sg4
(lp7041
VR_THZPSN3
p7042
asg7
g7039
ssVb2538-b2539-b2540-b2542
p7043
(dp7044
g3
I0
sg4
(lp7045
VR_CINNDO
p7046
aVR_PPPNDO
p7047
asg7
g7043
ssVb1982
p7048
(dp7049
g3
I0
sg4
(lp7050
VR_AMPN
p7051
asg7
g7048
ssVb1131
p7052
(dp7053
g3
I0
sg4
(lp7054
VR_ADSL1r
p7055
aVR_ADSL2r
p7056
asg7
g7052
ssVb1134
p7057
(dp7058
g3
I0
sg4
(lp7059
g1520
aVR_TDP
p7060
asg7
g7057
ssVb1136
p7061
(dp7062
g3
I0
sg4
(lp7063
VR_ICDHyr
p7064
asg7
g7061
ssVb1710
p7065
(dp7066
g3
I0
sg4
(lp7067
VR_GTHPi
p7068
ag5444
asg7
g7065
ssVb0894-b0895-b0896
p7069
(dp7070
g3
I0
sg4
(lp7071
g4515
aVR_DMSOR2
p7072
ag4517
aVR_TMAOR2
p7073
asg7
g7069
ssVb1713-b1714
p7074
(dp7075
g3
I0
sg4
(lp7076
VR_PHETRS
p7077
asg7
g7074
ssVb0662
p7078
(dp7079
g3
I0
sg4
(lp7080
VR_OMMBLHX
p7081
asg7
g7078
ssVb1249
p7082
(dp7083
g3
I0
sg4
(lp7084
g3818
ag3819
ag3820
ag3821
ag3822
ag3823
ag3824
asg7
g7082
ssVb3061-b3062
p7085
(dp7086
g3
I0
sg4
(lp7087
VR_TARTD
p7088
asg7
g7085
ssVb4367
p7089
(dp7090
g3
I0
sg4
(lp7091
VR_FEOXAMR1
p7092
aVR_FEOXAMR2
p7093
aVR_FEOXAMR3
p7094
asg7
g7089
ssVb1394
p7095
(dp7096
g3
I0
sg4
(lp7097
VR_REPHACCOAI
p7098
asg7
g7095
ssVb1395
p7099
(dp7100
g3
I0
sg4
(lp7101
VR_HADPCOADH3
p7102
asg7
g7099
ssVb1397
p7103
(dp7104
g3
I0
sg4
(lp7105
VR_3OXCOAT
p7106
asg7
g7103
ssVb1393
p7107
(dp7108
g3
I0
sg4
(lp7109
VR_DHACOAH
p7110
asg7
g7107
ssVb1398
p7111
(dp7112
g3
I0
sg4
(lp7113
VR_PACCOAL
p7114
asg7
g7111
ssVb1622
p7115
(dp7116
g3
I0
sg4
(lp7117
VR_CYSTL
p7118
asg7
g7115
ssVb1623
p7119
(dp7120
g3
I0
sg4
(lp7121
VR_ADA
p7122
aVR_DADA
p7123
asg7
g7119
ssVb0121
p7124
(dp7125
g3
I0
sg4
(lp7126
VR_APCS
p7127
aVR_SPMS
p7128
asg7
g7124
ssVb3807-b2530-b2529
p7129
(dp7130
g3
I0
sg4
(lp7131
VR_I2FE2SS
p7132
aVR_I2FE2SS2
p7133
asg7
g7129
ssVb1291-b3290-b1363
p7134
(dp7135
g3
I0
sg4
(lp7136
g3914
asg7
g7134
ssVb2023-b2025
p7137
(dp7138
g3
I0
sg4
(lp7139
VR_IG3PS
p7140
asg7
g7137
ssVb4036
p7141
(dp7142
g3
I0
sg4
(lp7143
VR_14GLUCANtexi
p7144
aVR_GLCtexi
p7145
aVR_MALTHXtexi
p7146
aVR_MALTPTtexi
p7147
aVR_MALTTRtexi
p7148
aVR_MALTTTRtexi
p7149
aVR_MALTtexi
p7150
asg7
g7141
ssVb0040
p7151
(dp7152
g3
I0
sg4
(lp7153
VR_CRNt7pp
p7154
aVR_CRNt8pp
p7155
asg7
g7151
ssVb0047
p7156
(dp7157
g3
I0
sg4
(lp7158
g64
asg7
g7156
ssVb4031
p7159
(dp7160
g3
I0
sg4
(lp7161
VR_XYLt2pp
p7162
asg7
g7159
ssVb0049
p7163
(dp7164
g3
I0
sg4
(lp7165
VR_AP4AH
p7166
aVR_AP5AH
p7167
aVR_GP4GH
p7168
asg7
g7163
ssVb0048
p7169
(dp7170
g3
I0
sg4
(lp7171
g6127
asg7
g7169
ssVb4039
p7172
(dp7173
g3
I0
sg4
(lp7174
VR_CHRPL
p7175
asg7
g7172
ssVb0915
p7176
(dp7177
g3
I0
sg4
(lp7178
VR_TDSK
p7179
asg7
g7176
ssVb0914
p7180
(dp7181
g3
I0
sg4
(lp7182
VR_COLIPAabcpp
p7183
aVR_K2L4Aabcpp
p7184
aVR_LIPACabcpp
p7185
aVR_LIPAabcpp
p7186
aVR_PA120abcpp
p7187
aVR_PA140abcpp
p7188
aVR_PA141abcpp
p7189
aVR_PA160abcpp
p7190
aVR_PA161abcpp
p7191
aVR_PA180abcpp
p7192
aVR_PA181abcpp
p7193
aVR_PE120abcpp
p7194
aVR_PE140abcpp
p7195
aVR_PE141abcpp
p7196
aVR_PE160abcpp
p7197
aVR_PE161abcpp
p7198
aVR_PE180abcpp
p7199
aVR_PE181abcpp
p7200
aVR_PG120abcpp
p7201
aVR_PG140abcpp
p7202
aVR_PG141abcpp
p7203
aVR_PG160abcpp
p7204
aVR_PG161abcpp
p7205
aVR_PG180abcpp
p7206
aVR_PG181abcpp
p7207
aVR_PGP120abcpp
p7208
aVR_PGP140abcpp
p7209
aVR_PGP141abcpp
p7210
aVR_PGP160abcpp
p7211
aVR_PGP161abcpp
p7212
aVR_PGP180abcpp
p7213
aVR_PGP181abcpp
p7214
asg7
g7180
ssVb0444
p7215
(dp7216
g3
I0
sg4
(lp7217
VR_CCGS
p7218
asg7
g7215
ssVb0910
p7219
(dp7220
g3
I0
sg4
(lp7221
VR_CYTK1
p7222
aVR_CYTK2
p7223
ag4417
asg7
g7219
ssVb3722-b2415-b2416
p7224
(dp7225
g3
I0
sg4
(lp7226
g5104
asg7
g7224
ssVb0918
p7227
(dp7228
g3
I0
sg4
(lp7229
VR_KDOCT2
p7230
asg7
g7227
ssVb2925
p7231
(dp7232
g3
I0
sg4
(lp7233
g2138
aVR_FBA3
p7234
asg7
g7231
ssVb0781-b0783
p7235
(dp7236
g3
I0
sg4
(lp7237
VR_CPMPS
p7238
asg7
g7235
ssVb2895-b3924-b4238-b4237
p7239
(dp7240
g3
I0
sg4
(lp7241
g3411
ag3412
ag3413
ag3414
asg7
g7239
ssVb3559-b3560
p7242
(dp7243
g3
I0
sg4
(lp7244
VR_GLYTRS
p7245
asg7
g7242
ssVb3001
p7246
(dp7247
g3
I0
sg4
(lp7248
g3495
asg7
g7246
ssVb3008
p7249
(dp7250
g3
I0
sg4
(lp7251
g5954
ag7118
asg7
g7249
ssVb0751
p7252
(dp7253
g3
I0
sg4
(lp7254
VR_NMNPtpp
p7255
asg7
g7252
ssVb4233
p7256
(dp7257
g3
I0
sg4
(lp7258
VR_UM3PL
p7259
aVR_UM4PL
p7260
asg7
g7256
ssVb3222
p7261
(dp7262
g3
I0
sg4
(lp7263
VR_AMANK
p7264
asg7
g7261
ssVb3223
p7265
(dp7266
g3
I0
sg4
(lp7267
VR_AMANAPEr
p7268
asg7
g7265
ssS'enzyme_343'
p7269
(dp7270
g3
I0
sg4
(lp7271
VR_AACTOOR
p7272
asg7
g7269
ssVb3224
p7273
(dp7274
g3
I0
sg4
(lp7275
VR_ACNAMt2pp
p7276
asg7
g7273
ssVb3225
p7277
(dp7278
g3
I0
sg4
(lp7279
VR_ACNML
p7280
asg7
g7277
ssVb1216
p7281
(dp7282
g3
I0
sg4
(lp7283
VR_CA2t3pp
p7284
ag64
ag917
asg7
g7281
ssVb3126
p7285
(dp7286
g3
I0
sg4
(lp7287
VR_GLCRAL
p7288
asg7
g7285
ssVb1388-b1389-b1390-b1391-b1392
p7289
(dp7290
g3
I0
sg4
(lp7291
VR_PACCOAE
p7292
asg7
g7289
ssVb3648
p7293
(dp7294
g3
I0
sg4
(lp7295
VR_DGK1
p7296
aVR_GK1
p7297
asg7
g7293
ssVb1817-b1818-b1819-b2415-b2416
p7298
(dp7299
g3
I0
sg4
(lp7300
VR_ACMANAptspp
p7301
aVR_FRUpts2pp
p7302
aVR_GAMptspp
p7303
ag3239
aVR_MANptspp
p7304
asg7
g7298
ssVb2149-b2150-b2148
p7305
(dp7306
g3
I0
sg4
(lp7307
g6208
aVR_GLCabcpp
p7308
asg7
g7305
ssVb3640
p7309
(dp7310
g3
I0
sg4
(lp7311
g5982
asg7
g7309
ssVb3642
p7312
(dp7313
g3
I0
sg4
(lp7314
VR_ORPT
p7315
asg7
g7312
ss.